EXPORTS
    CreatePlayerMovementScript @1
    CreateScript1 @2
    CreateScript2 @3

IMPORTS

    EngineSq.dll._Z7fprintfP6_iobufPKcz
    EngineSq.dll._Z7sprintfPcPKcz
    EngineSq.dll._ZN10GameEngine10GameEngine7ExecuteENSt7__cxx1112basic_stringIcSt11char_traitsIcESaIcEEES6_
    EngineSq.dll._ZN13DynamicLoader14ScriptLoadInfoD1Ev
    EngineSq.dll._ZN3ECS10CreateMaskESt16initializer_listIyE
    EngineSq.dll._ZN3ECS13SystemManager10UnregisterEy
    EngineSq.dll._ZN3ECS13SystemManager7CallAllEv
    EngineSq.dll._ZN3ECS13SystemManager8RegisterENS_6SystemE
    EngineSq.dll._ZN3ECS13SystemManager8RegisterEPNS_15SystemInterfaceE
    EngineSq.dll._ZN3ECS16ComponentManagerINS_6EntityEE12AddOperation7ProcessEv
    EngineSq.dll._ZN3ECS16ComponentManagerINS_6EntityEE12AddOperationD0Ev
    EngineSq.dll._ZN3ECS16ComponentManagerINS_6EntityEE12AddOperationD1Ev
    EngineSq.dll._ZN3ECS16ComponentManagerINS_6EntityEE15RemoveComponentES1_
    EngineSq.dll._ZN3ECS16ComponentManagerINS_6EntityEE15RemoveOperation7ProcessEv
    EngineSq.dll._ZN3ECS16ComponentManagerINS_6EntityEE15RemoveOperationD0Ev
    EngineSq.dll._ZN3ECS16ComponentManagerINS_6EntityEE15RemoveOperationD1Ev
    EngineSq.dll._ZN3ECS16ComponentManagerINS_6EntityEED0Ev
    EngineSq.dll._ZN3ECS16ComponentManagerINS_6EntityEED1Ev
    EngineSq.dll._ZN3ECS17DefaultEngineCore10UnregisterEy
    EngineSq.dll._ZN3ECS17DefaultEngineCore11GetEntitiesESt3setIySt4lessIyESaIyEE
    EngineSq.dll._ZN3ECS17DefaultEngineCore12CreateEntityEv
    EngineSq.dll._ZN3ECS17DefaultEngineCore12DeleteEntityENS_6EntityE
    EngineSq.dll._ZN3ECS17DefaultEngineCore14DeleteEntitiesERKSt6vectorINS_6EntityESaIS2_EE
    EngineSq.dll._ZN3ECS17DefaultEngineCore15EntitiesCallForESt3setIySt4lessIyESaIyEESt8functionIFvSt6vectorINS_6EntityESaIS8_EEPNS_6EngineIS0_EEEESD_
    EngineSq.dll._ZN3ECS17DefaultEngineCore7CallAllEv
    EngineSq.dll._ZN3ECS17DefaultEngineCore8RegisterENS_6SystemE
    EngineSq.dll._ZN3ECS17DefaultEngineCore8RegisterEPNS_15SystemInterfaceE
    EngineSq.dll._ZN3LOG12MakeLogQueryENSt7__cxx1112basic_stringIcSt11char_traitsIcESaIcEEENS_8Log_typeEPKciS8_z
    EngineSq.dll._ZN3LOG13EnableLoggingEv
    EngineSq.dll._ZN3LOG14ConsolePainter10ResetColorEv
    EngineSq.dll._ZN3LOG14ConsolePainter11ChangeColorEi
    EngineSq.dll._ZN3LOG14ConsolePainter4InitEv
    EngineSq.dll._ZN3LOG14DisableLoggingEv
    EngineSq.dll._ZN3LOG17SpecializedLogger11Print_queryEPNS_8LogQueryE
    EngineSq.dll._ZN3LOG17SpecializedLogger11name_colorsE
    EngineSq.dll._ZN3LOG17SpecializedLogger16Get_current_timeEPc
    EngineSq.dll._ZN3LOG17SpecializedLogger19longest_name_lengthE
    EngineSq.dll._ZN3LOG17SpecializedLogger25Reset_longest_name_lengthEv
    EngineSq.dll._ZN3LOG17SpecializedLogger3LogEPNS_8LogQueryE
    EngineSq.dll._ZN3LOG17SpecializedLogger6EnableEv
    EngineSq.dll._ZN3LOG17SpecializedLogger7DisableEv
    EngineSq.dll._ZN3LOG20GetNumberOfArgumentsEPKc
    EngineSq.dll._ZN3LOG4InitEv
    EngineSq.dll._ZN3LOG5CloseEv
    EngineSq.dll._ZN3LOG6CTimer5StartEv
    EngineSq.dll._ZN3LOG6CTimer7GetTimeEv
    EngineSq.dll._ZN3LOG6Logger10AddToQueueENS_8LogQueryE
    EngineSq.dll._ZN3LOG6Logger10PrintQueueEv
    EngineSq.dll._ZN3LOG6Logger11GetInstanceEv
    EngineSq.dll._ZN3LOG6Logger11StartThreadEv
    EngineSq.dll._ZN3LOG6Logger11WriteThreadEv
    EngineSq.dll._ZN3LOG6Logger13EnableLoggingEv
    EngineSq.dll._ZN3LOG6Logger14DisableLoggingEv
    EngineSq.dll._ZN3LOG6Logger4InitEv
    EngineSq.dll._ZN3LOG6Logger5CloseEv
    EngineSq.dll._ZN3LOG6Logger9AddLoggerENSt7__cxx1112basic_stringIcSt11char_traitsIcESaIcEEEP6_iobufb
    EngineSq.dll._ZN3LOG6Logger9GetLoggerENSt7__cxx1112basic_stringIcSt11char_traitsIcESaIcEEE
    EngineSq.dll._ZN3LOG8LogQueryD1Ev
    EngineSq.dll._ZN3LOG9AddLoggerENSt7__cxx1112basic_stringIcSt11char_traitsIcESaIcEEEP6_iobufb
    EngineSq.dll._ZN3LOG9AddLoggerENSt7__cxx1112basic_stringIcSt11char_traitsIcESaIcEEES5_b
    EngineSq.dll._ZN6Engine11PrintStatusEP6_iobuf
    EngineSq.dll._ZN6Engine12ClearTextureEPNS_7TextureE
    EngineSq.dll._ZN6Engine15Game_Controller10Pressed_UpEv
    EngineSq.dll._ZN6Engine15Game_Controller12Pressed_DownEv
    EngineSq.dll._ZN6Engine15Game_Controller12Pressed_LeftEv
    EngineSq.dll._ZN6Engine15Game_Controller13Pressed_RightEv
    EngineSq.dll._ZN6Engine15Game_Controller13Update_EventsEv
    EngineSq.dll._ZN6Engine15Game_Controller14AXIS_DEAD_ZONEE
    EngineSq.dll._ZN6Engine15Game_Controller14Get_LeftStickXEv
    EngineSq.dll._ZN6Engine15Game_Controller14Get_LeftStickYEv
    EngineSq.dll._ZN6Engine15Game_Controller14Stop_VibrationEv
    EngineSq.dll._ZN6Engine15Game_Controller15Get_RightStickXEv
    EngineSq.dll._ZN6Engine15Game_Controller15Get_RightStickYEv
    EngineSq.dll._ZN6Engine15Game_Controller16Get_Button_StateEi
    EngineSq.dll._ZN6Engine15Game_Controller16Pressed_A_buttonEv
    EngineSq.dll._ZN6Engine15Game_Controller16Pressed_B_buttonEv
    EngineSq.dll._ZN6Engine15Game_Controller16Pressed_X_buttonEv
    EngineSq.dll._ZN6Engine15Game_Controller16Pressed_Y_buttonEv
    EngineSq.dll._ZN6Engine15Game_Controller17controller_schemeE
    EngineSq.dll._ZN6Engine15Game_Controller18Pressed_Any_ButtonEv
    EngineSq.dll._ZN6Engine15Game_Controller19Pressed_Back_buttonEv
    EngineSq.dll._ZN6Engine15Game_Controller20Pressed_Guide_buttonEv
    EngineSq.dll._ZN6Engine15Game_Controller20Pressed_LeftShoulderEv
    EngineSq.dll._ZN6Engine15Game_Controller20Pressed_Start_buttonEv
    EngineSq.dll._ZN6Engine15Game_Controller21Pressed_RightShoulderEv
    EngineSq.dll._ZN6Engine15Game_Controller4InitEi
    EngineSq.dll._ZN6Engine15Game_Controller6Get_idEv
    EngineSq.dll._ZN6Engine15Game_Controller7DestroyEv
    EngineSq.dll._ZN6Engine15Game_Controller7VibrateEdi
    EngineSq.dll._ZN6Engine15Game_ControllerC1Ev
    EngineSq.dll._ZN6Engine15Game_ControllerC2Ev
    EngineSq.dll._ZN6Engine4Font4LoadENSt7__cxx1112basic_stringIcSt11char_traitsIcESaIcEEEi
    EngineSq.dll._ZN6Engine4Font5ClearEv
    EngineSq.dll._ZN6Engine4Impl11NULLSurfaceE
    EngineSq.dll._ZN6Engine4Impl14NULLSurfacePtrE
    EngineSq.dll._ZN6Engine4Impl14SurfaceFactory4OpenEv
    EngineSq.dll._ZN6Engine4Impl14SurfaceFactory5CloseEv
    EngineSq.dll._ZN6Engine4Impl14SurfaceFactoryC1Ev
    EngineSq.dll._ZN6Engine4Impl14SurfaceFactoryC2Ev
    EngineSq.dll._ZN6Engine4Impl14SurfaceFactoryD1Ev
    EngineSq.dll._ZN6Engine4Impl14SurfaceFactoryD2Ev
    EngineSq.dll._ZN6Engine4Impl7Surface4GetHEv
    EngineSq.dll._ZN6Engine4Impl7Surface4GetWEv
    EngineSq.dll._ZN6Engine4Impl7Surface5ClearEv
    EngineSq.dll._ZN6Engine4Impl7Surface8GetImageEv
    EngineSq.dll._ZN6Engine4Impl7SurfaceC1EP11SDL_Surface
    EngineSq.dll._ZN6Engine4Impl7SurfaceC1EiiP11SDL_Surface
    EngineSq.dll._ZN6Engine4Impl7SurfaceC1Ev
    EngineSq.dll._ZN6Engine4Impl7SurfaceC2EP11SDL_Surface
    EngineSq.dll._ZN6Engine4Impl7SurfaceC2EiiP11SDL_Surface
    EngineSq.dll._ZN6Engine4Impl7SurfaceC2Ev
    EngineSq.dll._ZN6Engine4InitEv
    EngineSq.dll._ZN6Engine5CloseEv
    EngineSq.dll._ZN6Engine5Color11GetSDLColorEv
    EngineSq.dll._ZN6Engine5Timer5StartEv
    EngineSq.dll._ZN6Engine5Timer7GetTimeEv
    EngineSq.dll._ZN6Engine6Events10PumpEventsEv
    EngineSq.dll._ZN6Engine6Window10PumpEventsEv
    EngineSq.dll._ZN6Engine6Window10Reset_flagEi
    EngineSq.dll._ZN6Engine6Window11GetKeystateENS_8ScancodeE
    EngineSq.dll._ZN6Engine6Window11GetPositionEv
    EngineSq.dll._ZN6Engine6Window11GetRendererEv
    EngineSq.dll._ZN6Engine6Window11SetPositionENS_9RectangleE
    EngineSq.dll._ZN6Engine6Window11SetPositionEiiii
    EngineSq.dll._ZN6Engine6Window12GetKeystatesEv
    EngineSq.dll._ZN6Engine6Window12SetArgumentsENSt7__cxx1112basic_stringIcSt11char_traitsIcESaIcEEEiiiiiS6_
    EngineSq.dll._ZN6Engine6Window14Get_controllerEi
    EngineSq.dll._ZN6Engine6Window15Get_controllersEv
    EngineSq.dll._ZN6Engine6Window16Init_ControllersEv
    EngineSq.dll._ZN6Engine6Window19Destroy_ControllersEv
    EngineSq.dll._ZN6Engine6Window25Update_Controllers_EventsEv
    EngineSq.dll._ZN6Engine6Window4OpenENSt7__cxx1112basic_stringIcSt11char_traitsIcESaIcEEEiiiiiS6_
    EngineSq.dll._ZN6Engine6Window4OpenEv
    EngineSq.dll._ZN6Engine6Window5CloseEv
    EngineSq.dll._ZN6Engine6Window6ReopenENSt7__cxx1112basic_stringIcSt11char_traitsIcESaIcEEEiiiiiS6_
    EngineSq.dll._ZN6Engine6Window6ReopenEv
    EngineSq.dll._ZN6Engine6Window7SetIconENSt7__cxx1112basic_stringIcSt11char_traitsIcESaIcEEE
    EngineSq.dll._ZN6Engine6Window8SetFlagsEi
    EngineSq.dll._ZN6Engine6Window8SetTitleENSt7__cxx1112basic_stringIcSt11char_traitsIcESaIcEEE
    EngineSq.dll._ZN6Engine6Window8Set_flagEi
    EngineSq.dll._ZN6Engine6Window9Open_iconEv
    EngineSq.dll._ZN6Engine6WindowC1ENSt7__cxx1112basic_stringIcSt11char_traitsIcESaIcEEEiiiiiS6_
    EngineSq.dll._ZN6Engine6WindowC2ENSt7__cxx1112basic_stringIcSt11char_traitsIcESaIcEEEiiiiiS6_
    EngineSq.dll._ZN6Engine6statusE
    EngineSq.dll._ZN6Engine7InitMixEv
    EngineSq.dll._ZN6Engine7InitSDLEv
    EngineSq.dll._ZN6Engine7InitTTFEv
    EngineSq.dll._ZN6Engine7Texture4GetHEv
    EngineSq.dll._ZN6Engine7Texture4GetWEv
    EngineSq.dll._ZN6Engine7Texture5ClearEv
    EngineSq.dll._ZN6Engine7Texture8GetAlphaEv
    EngineSq.dll._ZN6Engine7Texture8GetImageEv
    EngineSq.dll._ZN6Engine7Texture8SetAlphaEi
    EngineSq.dll._ZN6Engine7TextureC1EiiP11SDL_Texture
    EngineSq.dll._ZN6Engine7TextureC2EiiP11SDL_Texture
    EngineSq.dll._ZN6Engine8CloseMixEv
    EngineSq.dll._ZN6Engine8CloseSDLEv
    EngineSq.dll._ZN6Engine8CloseTTFEv
    EngineSq.dll._ZN6Engine8LoadFontENSt7__cxx1112basic_stringIcSt11char_traitsIcESaIcEEEi
    EngineSq.dll._ZN6Engine8Renderer11DrawTextureENS_9RectangleEPNS_7TextureES1_
    EngineSq.dll._ZN6Engine8Renderer11DrawTextureEiiPNS_7TextureE
    EngineSq.dll._ZN6Engine8Renderer11DrawTextureEiiPNS_7TextureES2_
    EngineSq.dll._ZN6Engine8Renderer11LoadTextureENSt7__cxx1112basic_stringIcSt11char_traitsIcESaIcEEE
    EngineSq.dll._ZN6Engine8Renderer15SetTextureAlphaEPNS_7TextureEh
    EngineSq.dll._ZN6Engine8Renderer16CreateTTFTextureEPNS_4FontENSt7__cxx1112basic_stringIcSt11char_traitsIcESaIcEEENS_5ColorE
    EngineSq.dll._ZN6Engine8Renderer19SetTextureBlendModeEPNS_7TextureE13SDL_BlendMode
    EngineSq.dll._ZN6Engine8Renderer24CreateTransparentTextureEii
    EngineSq.dll._ZN6Engine8Renderer4OpenEP10SDL_Windowi
    EngineSq.dll._ZN6Engine8Renderer5CloseEv
    EngineSq.dll._ZN6Engine8Renderer5FlushEv
    EngineSq.dll._ZN6Engine8Renderer6ReOpenEP10SDL_Windowi
    EngineSq.dll._ZN6Engine8Renderer7PresentEv
    EngineSq.dll._ZN6Engine8Renderer8DrawLineEiiiiNS_5ColorE
    EngineSq.dll._ZN6Engine8Renderer8DrawRectERKNS_9RectangleE
    EngineSq.dll._ZN6Engine9ClearFontEPNS_4FontE
    EngineSq.dll._ZN6Engine9Rectangle5PrintEP6_iobuf
    EngineSq.dll._ZN8ECSScene11SceneLoader4LoadENSt7__cxx1112basic_stringIcSt11char_traitsIcESaIcEEE
    EngineSq.dll._ZN8ECSScene5Scene4LoadENSt7__cxx1112basic_stringIcSt11char_traitsIcESaIcEEE
    EngineSq.dll._ZN8ECSScene6EntityC1EN8nlohmann16json_abi_v3_11_310basic_jsonISt3mapSt6vectorNSt7__cxx1112basic_stringIcSt11char_traitsIcESaIcEEEbxydSaNS2_14adl_serializerES5_IhSaIhEEvEE
    EngineSq.dll._ZN8ECSScene6EntityC1ERKS0_
    EngineSq.dll._ZN8ECSScene6EntityD1Ev
    EngineSq.dll._ZN8ECSScene9ComponentD1Ev
    EngineSq.dll._ZN8nlohmann16json_abi_v3_11_310basic_jsonISt3mapSt6vectorNSt7__cxx1112basic_stringIcSt11char_traitsIcESaIcEEEbxydSaNS0_14adl_serializerES3_IhSaIhEEvE10json_value7destroyENS0_6detail7value_tE
    EngineSq.dll._ZN8nlohmann16json_abi_v3_11_310basic_jsonISt3mapSt6vectorNSt7__cxx1112basic_stringIcSt11char_traitsIcESaIcEEEbxydSaNS0_14adl_serializerES3_IhSaIhEEvE10json_valueC1ENS0_6detail7value_tE
    EngineSq.dll._ZN8nlohmann16json_abi_v3_11_310basic_jsonISt3mapSt6vectorNSt7__cxx1112basic_stringIcSt11char_traitsIcESaIcEEEbxydSaNS0_14adl_serializerES3_IhSaIhEEvE5eraseINS0_6detail9iter_implISD_EELi0EEET_SI_
    EngineSq.dll._ZN8nlohmann16json_abi_v3_11_310basic_jsonISt3mapSt6vectorNSt7__cxx1112basic_stringIcSt11char_traitsIcESaIcEEEbxydSaNS0_14adl_serializerES3_IhSaIhEEvEC1EDn
    EngineSq.dll._ZN8nlohmann16json_abi_v3_11_310basic_jsonISt3mapSt6vectorNSt7__cxx1112basic_stringIcSt11char_traitsIcESaIcEEEbxydSaNS0_14adl_serializerES3_IhSaIhEEvEC1EOSD_
    EngineSq.dll._ZN8nlohmann16json_abi_v3_11_310basic_jsonISt3mapSt6vectorNSt7__cxx1112basic_stringIcSt11char_traitsIcESaIcEEEbxydSaNS0_14adl_serializerES3_IhSaIhEEvEC1ERKSD_
    EngineSq.dll._ZN8nlohmann16json_abi_v3_11_310basic_jsonISt3mapSt6vectorNSt7__cxx1112basic_stringIcSt11char_traitsIcESaIcEEEbxydSaNS0_14adl_serializerES3_IhSaIhEEvEC1IRS9_S9_Li0EEEOT_
    EngineSq.dll._ZN8nlohmann16json_abi_v3_11_310basic_jsonISt3mapSt6vectorNSt7__cxx1112basic_stringIcSt11char_traitsIcESaIcEEEbxydSaNS0_14adl_serializerES3_IhSaIhEEvED1Ev
    EngineSq.dll._ZN8nlohmann16json_abi_v3_11_310basic_jsonISt3mapSt6vectorNSt7__cxx1112basic_stringIcSt11char_traitsIcESaIcEEEbxydSaNS0_14adl_serializerES3_IhSaIhEEvEaSESD_
    EngineSq.dll._ZN8nlohmann16json_abi_v3_11_310basic_jsonISt3mapSt6vectorNSt7__cxx1112basic_stringIcSt11char_traitsIcESaIcEEEbxydSaNS0_14adl_serializerES3_IhSaIhEEvEixIKcEERSD_PT_
    EngineSq.dll._ZN8nlohmann16json_abi_v3_11_36detail10type_error6createIPNS0_10basic_jsonISt3mapSt6vectorNSt7__cxx1112basic_stringIcSt11char_traitsIcESaIcEEEbxydSaNS0_14adl_serializerES6_IhSaIhEEvEELi0EEES2_iRKSC_T_
    EngineSq.dll._ZN8nlohmann16json_abi_v3_11_36detail10type_errorD0Ev
    EngineSq.dll._ZN8nlohmann16json_abi_v3_11_36detail10type_errorD1Ev
    EngineSq.dll._ZN8nlohmann16json_abi_v3_11_36detail11other_errorD0Ev
    EngineSq.dll._ZN8nlohmann16json_abi_v3_11_36detail11other_errorD1Ev
    EngineSq.dll._ZN8nlohmann16json_abi_v3_11_36detail11parse_error6createIDnLi0EEES2_iRKNS1_10position_tERKNSt7__cxx1112basic_stringIcSt11char_traitsIcESaIcEEET_
    EngineSq.dll._ZN8nlohmann16json_abi_v3_11_36detail11parse_errorD0Ev
    EngineSq.dll._ZN8nlohmann16json_abi_v3_11_36detail11parse_errorD1Ev
    EngineSq.dll._ZN8nlohmann16json_abi_v3_11_36detail12out_of_range6createIDnLi0EEES2_iRKNSt7__cxx1112basic_stringIcSt11char_traitsIcESaIcEEET_
    EngineSq.dll._ZN8nlohmann16json_abi_v3_11_36detail12out_of_range6createIPNS0_10basic_jsonISt3mapSt6vectorNSt7__cxx1112basic_stringIcSt11char_traitsIcESaIcEEEbxydSaNS0_14adl_serializerES6_IhSaIhEEvEELi0EEES2_iRKSC_T_
    EngineSq.dll._ZN8nlohmann16json_abi_v3_11_36detail12out_of_rangeD0Ev
    EngineSq.dll._ZN8nlohmann16json_abi_v3_11_36detail12out_of_rangeD1Ev
    EngineSq.dll._ZN8nlohmann16json_abi_v3_11_36detail16invalid_iterator6createIPNS0_10basic_jsonISt3mapSt6vectorNSt7__cxx1112basic_stringIcSt11char_traitsIcESaIcEEEbxydSaNS0_14adl_serializerES6_IhSaIhEEvEELi0EEES2_iRKSC_T_
    EngineSq.dll._ZN8nlohmann16json_abi_v3_11_36detail16invalid_iteratorD0Ev
    EngineSq.dll._ZN8nlohmann16json_abi_v3_11_36detail16invalid_iteratorD1Ev
    EngineSq.dll._ZN8nlohmann16json_abi_v3_11_36detail19json_sax_dom_parserINS0_10basic_jsonISt3mapSt6vectorNSt7__cxx1112basic_stringIcSt11char_traitsIcESaIcEEEbxydSaNS0_14adl_serializerES5_IhSaIhEEvEEE10end_objectEv
    EngineSq.dll._ZN8nlohmann16json_abi_v3_11_36detail19json_sax_dom_parserINS0_10basic_jsonISt3mapSt6vectorNSt7__cxx1112basic_stringIcSt11char_traitsIcESaIcEEEbxydSaNS0_14adl_serializerES5_IhSaIhEEvEEE11parse_errorINS1_11parse_errorEEEbyRKSB_RKT_
    EngineSq.dll._ZN8nlohmann16json_abi_v3_11_36detail19json_sax_dom_parserINS0_10basic_jsonISt3mapSt6vectorNSt7__cxx1112basic_stringIcSt11char_traitsIcESaIcEEEbxydSaNS0_14adl_serializerES5_IhSaIhEEvEEE12handle_valueINS1_7value_tEEEPSF_OT_
    EngineSq.dll._ZN8nlohmann16json_abi_v3_11_36detail19json_sax_dom_parserINS0_10basic_jsonISt3mapSt6vectorNSt7__cxx1112basic_stringIcSt11char_traitsIcESaIcEEEbxydSaNS0_14adl_serializerES5_IhSaIhEEvEEE12handle_valueIRbEEPSF_OT_
    EngineSq.dll._ZN8nlohmann16json_abi_v3_11_36detail19json_sax_dom_parserINS0_10basic_jsonISt3mapSt6vectorNSt7__cxx1112basic_stringIcSt11char_traitsIcESaIcEEEbxydSaNS0_14adl_serializerES5_IhSaIhEEvEEE3keyERSB_
    EngineSq.dll._ZN8nlohmann16json_abi_v3_11_36detail20input_stream_adapterD1Ev
    EngineSq.dll._ZN8nlohmann16json_abi_v3_11_36detail28json_sax_dom_callback_parserINS0_10basic_jsonISt3mapSt6vectorNSt7__cxx1112basic_stringIcSt11char_traitsIcESaIcEEEbxydSaNS0_14adl_serializerES5_IhSaIhEEvEEE10end_objectEv
    EngineSq.dll._ZN8nlohmann16json_abi_v3_11_36detail28json_sax_dom_callback_parserINS0_10basic_jsonISt3mapSt6vectorNSt7__cxx1112basic_stringIcSt11char_traitsIcESaIcEEEbxydSaNS0_14adl_serializerES5_IhSaIhEEvEEE11parse_errorINS1_11parse_errorEEEbyRKSB_RKT_
    EngineSq.dll._ZN8nlohmann16json_abi_v3_11_36detail28json_sax_dom_callback_parserINS0_10basic_jsonISt3mapSt6vectorNSt7__cxx1112basic_stringIcSt11char_traitsIcESaIcEEEbxydSaNS0_14adl_serializerES5_IhSaIhEEvEEE12handle_valueINS1_7value_tEEESt4pairIbPSF_EOT_b
    EngineSq.dll._ZN8nlohmann16json_abi_v3_11_36detail28json_sax_dom_callback_parserINS0_10basic_jsonISt3mapSt6vectorNSt7__cxx1112basic_stringIcSt11char_traitsIcESaIcEEEbxydSaNS0_14adl_serializerES5_IhSaIhEEvEEE12handle_valueIRbEESt4pairIbPSF_EOT_b
    EngineSq.dll._ZN8nlohmann16json_abi_v3_11_36detail28json_sax_dom_callback_parserINS0_10basic_jsonISt3mapSt6vectorNSt7__cxx1112basic_stringIcSt11char_traitsIcESaIcEEEbxydSaNS0_14adl_serializerES5_IhSaIhEEvEEE3keyERSB_
    EngineSq.dll._ZN8nlohmann16json_abi_v3_11_36detail28json_sax_dom_callback_parserINS0_10basic_jsonISt3mapSt6vectorNSt7__cxx1112basic_stringIcSt11char_traitsIcESaIcEEEbxydSaNS0_14adl_serializerES5_IhSaIhEEvEEE9end_arrayEv
    EngineSq.dll._ZN8nlohmann16json_abi_v3_11_36detail28json_sax_dom_callback_parserINS0_10basic_jsonISt3mapSt6vectorNSt7__cxx1112basic_stringIcSt11char_traitsIcESaIcEEEbxydSaNS0_14adl_serializerES5_IhSaIhEEvEEED1Ev
    EngineSq.dll._ZN8nlohmann16json_abi_v3_11_36detail5lexerINS0_10basic_jsonISt3mapSt6vectorNSt7__cxx1112basic_stringIcSt11char_traitsIcESaIcEEEbxydSaNS0_14adl_serializerES5_IhSaIhEEvEENS1_20input_stream_adapterEE11scan_numberEv
    EngineSq.dll._ZN8nlohmann16json_abi_v3_11_36detail5lexerINS0_10basic_jsonISt3mapSt6vectorNSt7__cxx1112basic_stringIcSt11char_traitsIcESaIcEEEbxydSaNS0_14adl_serializerES5_IhSaIhEEvEENS1_20input_stream_adapterEE11scan_stringEv
    EngineSq.dll._ZN8nlohmann16json_abi_v3_11_36detail5lexerINS0_10basic_jsonISt3mapSt6vectorNSt7__cxx1112basic_stringIcSt11char_traitsIcESaIcEEEbxydSaNS0_14adl_serializerES5_IhSaIhEEvEENS1_20input_stream_adapterEE13get_codepointEv
    EngineSq.dll._ZN8nlohmann16json_abi_v3_11_36detail5lexerINS0_10basic_jsonISt3mapSt6vectorNSt7__cxx1112basic_stringIcSt11char_traitsIcESaIcEEEbxydSaNS0_14adl_serializerES5_IhSaIhEEvEENS1_20input_stream_adapterEE18next_byte_in_rangeESt16initializer_listIiE
    EngineSq.dll._ZN8nlohmann16json_abi_v3_11_36detail5lexerINS0_10basic_jsonISt3mapSt6vectorNSt7__cxx1112basic_stringIcSt11char_traitsIcESaIcEEEbxydSaNS0_14adl_serializerES5_IhSaIhEEvEENS1_20input_stream_adapterEE3getEv
    EngineSq.dll._ZN8nlohmann16json_abi_v3_11_36detail5lexerINS0_10basic_jsonISt3mapSt6vectorNSt7__cxx1112basic_stringIcSt11char_traitsIcESaIcEEEbxydSaNS0_14adl_serializerES5_IhSaIhEEvEENS1_20input_stream_adapterEE4scanEv
    EngineSq.dll._ZN8nlohmann16json_abi_v3_11_36detail5lexerINS0_10basic_jsonISt3mapSt6vectorNSt7__cxx1112basic_stringIcSt11char_traitsIcESaIcEEEbxydSaNS0_14adl_serializerES5_IhSaIhEEvEENS1_20input_stream_adapterEE5ungetEv
    EngineSq.dll._ZN8nlohmann16json_abi_v3_11_36detail5lexerINS0_10basic_jsonISt3mapSt6vectorNSt7__cxx1112basic_stringIcSt11char_traitsIcESaIcEEEbxydSaNS0_14adl_serializerES5_IhSaIhEEvEENS1_20input_stream_adapterEED1Ev
    EngineSq.dll._ZN8nlohmann16json_abi_v3_11_36detail6concatINSt7__cxx1112basic_stringIcSt11char_traitsIcESaIcEEEJRA26_KcS8_cEEET_DpOT0_
    EngineSq.dll._ZN8nlohmann16json_abi_v3_11_36detail6concatINSt7__cxx1112basic_stringIcSt11char_traitsIcESaIcEEEJS8_S8_RKS8_EEET_DpOT0_
    EngineSq.dll._ZN8nlohmann16json_abi_v3_11_36detail6parserINS0_10basic_jsonISt3mapSt6vectorNSt7__cxx1112basic_stringIcSt11char_traitsIcESaIcEEEbxydSaNS0_14adl_serializerES5_IhSaIhEEvEENS1_20input_stream_adapterEE17exception_messageENS1_10lexer_baseISF_E10token_typeERKSB_
    EngineSq.dll._ZN8nlohmann16json_abi_v3_11_36detail6parserINS0_10basic_jsonISt3mapSt6vectorNSt7__cxx1112basic_stringIcSt11char_traitsIcESaIcEEEbxydSaNS0_14adl_serializerES5_IhSaIhEEvEENS1_20input_stream_adapterEE18sax_parse_internalINS1_19json_sax_dom_parserISF_EEEEbPT_
    EngineSq.dll._ZN8nlohmann16json_abi_v3_11_36detail6parserINS0_10basic_jsonISt3mapSt6vectorNSt7__cxx1112basic_stringIcSt11char_traitsIcESaIcEEEbxydSaNS0_14adl_serializerES5_IhSaIhEEvEENS1_20input_stream_adapterEE18sax_parse_internalINS1_28json_sax_dom_callback_parserISF_EEEEbPT_
    EngineSq.dll._ZN8nlohmann16json_abi_v3_11_36detail6parserINS0_10basic_jsonISt3mapSt6vectorNSt7__cxx1112basic_stringIcSt11char_traitsIcESaIcEEEbxydSaNS0_14adl_serializerES5_IhSaIhEEvEENS1_20input_stream_adapterEE5parseEbRSF_
    EngineSq.dll._ZN8nlohmann16json_abi_v3_11_36detail6parserINS0_10basic_jsonISt3mapSt6vectorNSt7__cxx1112basic_stringIcSt11char_traitsIcESaIcEEEbxydSaNS0_14adl_serializerES5_IhSaIhEEvEENS1_20input_stream_adapterEED1Ev
    EngineSq.dll._ZN8nlohmann16json_abi_v3_11_36detail9exception4nameERKNSt7__cxx1112basic_stringIcSt11char_traitsIcESaIcEEEi
    EngineSq.dll._ZN8nlohmann16json_abi_v3_11_36detail9exceptionD0Ev
    EngineSq.dll._ZN8nlohmann16json_abi_v3_11_36detail9exceptionD1Ev
    EngineSq.dll._ZN8nlohmann16json_abi_v3_11_36detail9iter_implINS0_10basic_jsonISt3mapSt6vectorNSt7__cxx1112basic_stringIcSt11char_traitsIcESaIcEEEbxydSaNS0_14adl_serializerES5_IhSaIhEEvEEE7set_endEv
    EngineSq.dll._ZN8nlohmann16json_abi_v3_11_36detail9iter_implINS0_10basic_jsonISt3mapSt6vectorNSt7__cxx1112basic_stringIcSt11char_traitsIcESaIcEEEbxydSaNS0_14adl_serializerES5_IhSaIhEEvEEE9set_beginEv
    EngineSq.dll._ZN8nlohmann16json_abi_v3_11_36detail9iter_implINS0_10basic_jsonISt3mapSt6vectorNSt7__cxx1112basic_stringIcSt11char_traitsIcESaIcEEEbxydSaNS0_14adl_serializerES5_IhSaIhEEvEEEC1EPSF_
    EngineSq.dll._ZN9__gnu_cxx12__to_xstringINSt7__cxx1112basic_stringIcSt11char_traitsIcESaIcEEEcEET_PFiPT0_yPKS8_PcEySB_z
    EngineSq.dll._ZNK3ECS6Entity5GetIdEv
    EngineSq.dll._ZNK6Engine4Impl14SurfaceFactory4LoadENSt7__cxx1112basic_stringIcSt11char_traitsIcESaIcEEE
    EngineSq.dll._ZNK8nlohmann16json_abi_v3_11_310basic_jsonISt3mapSt6vectorNSt7__cxx1112basic_stringIcSt11char_traitsIcESaIcEEEbxydSaNS0_14adl_serializerES3_IhSaIhEEvE16assert_invariantEb
    EngineSq.dll._ZNK8nlohmann16json_abi_v3_11_310basic_jsonISt3mapSt6vectorNSt7__cxx1112basic_stringIcSt11char_traitsIcESaIcEEEbxydSaNS0_14adl_serializerES3_IhSaIhEEvE8max_sizeEv
    EngineSq.dll._ZNK8nlohmann16json_abi_v3_11_36detail5lexerINS0_10basic_jsonISt3mapSt6vectorNSt7__cxx1112basic_stringIcSt11char_traitsIcESaIcEEEbxydSaNS0_14adl_serializerES5_IhSaIhEEvEENS1_20input_stream_adapterEE16get_token_stringEv
    EngineSq.dll._ZNK8nlohmann16json_abi_v3_11_36detail9exception4whatEv
    EngineSq.dll._ZNK8nlohmann16json_abi_v3_11_36detail9iter_implINS0_10basic_jsonISt3mapSt6vectorNSt7__cxx1112basic_stringIcSt11char_traitsIcESaIcEEEbxydSaNS0_14adl_serializerES5_IhSaIhEEvEEEdeEv
    EngineSq.dll._ZNK8nlohmann16json_abi_v3_11_36detail9iter_implINS0_10basic_jsonISt3mapSt6vectorNSt7__cxx1112basic_stringIcSt11char_traitsIcESaIcEEEbxydSaNS0_14adl_serializerES5_IhSaIhEEvEEEeqISG_LDn0EEEbRKT_
    EngineSq.dll._ZNKSt10_HashtableINSt7__cxx1112basic_stringIcSt11char_traitsIcESaIcEEESt4pairIKS5_N13DynamicLoader20DynamicScriptManagerIN10GameEngine11GameContextEE11LibInstanceEESaISE_ENSt8__detail10_Select1stESt8equal_toIS5_ESt4hashIS5_ENSG_18_Mod_range_hashingENSG_20_Default_ranged_hashENSG_20_Prime_rehash_policyENSG_17_Hashtable_traitsILb1ELb0ELb1EEEE19_M_find_before_nodeEyRS7_y
    EngineSq.dll._ZNKSt10_HashtableINSt7__cxx1112basic_stringIcSt11char_traitsIcESaIcEEESt4pairIKS5_PN3LOG17SpecializedLoggerEESaISB_ENSt8__detail10_Select1stESt8equal_toIS5_ESt4hashIS5_ENSD_18_Mod_range_hashingENSD_20_Default_ranged_hashENSD_20_Prime_rehash_policyENSD_17_Hashtable_traitsILb1ELb0ELb1EEEE15_M_bucket_beginEy
    EngineSq.dll._ZNKSt10_HashtableINSt7__cxx1112basic_stringIcSt11char_traitsIcESaIcEEESt4pairIKS5_PN3LOG17SpecializedLoggerEESaISB_ENSt8__detail10_Select1stESt8equal_toIS5_ESt4hashIS5_ENSD_18_Mod_range_hashingENSD_20_Default_ranged_hashENSD_20_Prime_rehash_policyENSD_17_Hashtable_traitsILb1ELb0ELb1EEEE19_M_find_before_nodeEyRS7_y
    EngineSq.dll._ZNKSt10_HashtableINSt7__cxx1112basic_stringIcSt11char_traitsIcESaIcEEESt4pairIKS5_PN3LOG17SpecializedLoggerEESaISB_ENSt8__detail10_Select1stESt8equal_toIS5_ESt4hashIS5_ENSD_18_Mod_range_hashingENSD_20_Default_ranged_hashENSD_20_Prime_rehash_policyENSD_17_Hashtable_traitsILb1ELb0ELb1EEEE5countERS7_
    EngineSq.dll._ZNKSt10_HashtableINSt7__cxx1112basic_stringIcSt11char_traitsIcESaIcEEESt4pairIKS5_St10shared_ptrIN13DynamicLoader22DynamicScriptInterfaceEEESaISC_ENSt8__detail10_Select1stESt8equal_toIS5_ESt4hashIS5_ENSE_18_Mod_range_hashingENSE_20_Default_ranged_hashENSE_20_Prime_rehash_policyENSE_17_Hashtable_traitsILb1ELb0ELb1EEEE19_M_find_before_nodeEyRS7_y
    EngineSq.dll._ZNKSt10_HashtableIySt4pairIKyN3ECS6SystemEESaIS4_ENSt8__detail10_Select1stESt8equal_toIyESt4hashIyENS6_18_Mod_range_hashingENS6_20_Default_ranged_hashENS6_20_Prime_rehash_policyENS6_17_Hashtable_traitsILb0ELb0ELb1EEEE19_M_find_before_nodeEyRS1_y
    EngineSq.dll._ZNKSt10_HashtableIySt4pairIKySt10unique_ptrIN3ECS20ComponentManagerBaseESt14default_deleteIS4_EEESaIS8_ENSt8__detail10_Select1stESt8equal_toIyESt4hashIyENSA_18_Mod_range_hashingENSA_20_Default_ranged_hashENSA_20_Prime_rehash_policyENSA_17_Hashtable_traitsILb0ELb0ELb1EEEE15_M_bucket_beginEy
    EngineSq.dll._ZNKSt10_HashtableIySt4pairIKySt10unique_ptrIN3ECS20ComponentManagerBaseESt14default_deleteIS4_EEESaIS8_ENSt8__detail10_Select1stESt8equal_toIyESt4hashIyENSA_18_Mod_range_hashingENSA_20_Default_ranged_hashENSA_20_Prime_rehash_policyENSA_17_Hashtable_traitsILb0ELb0ELb1EEEE19_M_find_before_nodeEyRS1_y
    EngineSq.dll._ZNKSt10_HashtableIySt4pairIKySt10unique_ptrIN3ECS20ComponentManagerBaseESt14default_deleteIS4_EEESaIS8_ENSt8__detail10_Select1stESt8equal_toIyESt4hashIyENSA_18_Mod_range_hashingENSA_20_Default_ranged_hashENSA_20_Prime_rehash_policyENSA_17_Hashtable_traitsILb0ELb0ELb1EEEE5countERS1_
    EngineSq.dll._ZNKSt7__cxx1112basic_stringIcSt11char_traitsIcESaIcEE4findEPKcyy
    EngineSq.dll._ZNKSt7__cxx1112basic_stringIcSt11char_traitsIcESaIcEE7compareERKS4_
    EngineSq.dll._ZNKSt8_Rb_treeIN3ECS6EntityESt4pairIKS1_St3setIySt4lessIyESaIyEEESt10_Select1stIS9_ES5_IS1_ESaIS9_EE14_M_lower_boundEPKSt13_Rb_tree_nodeIS9_EPKSt18_Rb_tree_node_baseRS3_
    EngineSq.dll._ZNKSt8_Rb_treeIN3ECS6EntityESt4pairIKS1_St3setIySt4lessIyESaIyEEESt10_Select1stIS9_ES5_IS1_ESaIS9_EE4findERS3_
    EngineSq.dll._ZNKSt8functionIFbiN8nlohmann16json_abi_v3_11_36detail13parse_event_tERNS1_10basic_jsonISt3mapSt6vectorNSt7__cxx1112basic_stringIcSt11char_traitsIcESaIcEEEbxydSaNS1_14adl_serializerES6_IhSaIhEEvEEEEclEiS3_SH_
    EngineSq.dll._ZNKSt8functionIFvSt6vectorIN3ECS6EntityESaIS2_EEPNS1_6EngineINS1_17DefaultEngineCoreEEEEEclES4_S8_
    EngineSq.dll._ZNKSt8functionIFvvEEclEv
    EngineSq.dll._ZNSt10_HashtableINSt7__cxx1112basic_stringIcSt11char_traitsIcESaIcEEESt4pairIKS5_N13DynamicLoader20DynamicScriptManagerIN10GameEngine11GameContextEE11LibInstanceEESaISE_ENSt8__detail10_Select1stESt8equal_toIS5_ESt4hashIS5_ENSG_18_Mod_range_hashingENSG_20_Default_ranged_hashENSG_20_Prime_rehash_policyENSG_17_Hashtable_traitsILb1ELb0ELb1EEEE10_M_emplaceIJSE_EEES6_INSG_14_Node_iteratorISE_Lb0ELb1EEEbESt17integral_constantIbLb1EEDpOT_
    EngineSq.dll._ZNSt10_HashtableINSt7__cxx1112basic_stringIcSt11char_traitsIcESaIcEEESt4pairIKS5_N13DynamicLoader20DynamicScriptManagerIN10GameEngine11GameContextEE11LibInstanceEESaISE_ENSt8__detail10_Select1stESt8equal_toIS5_ESt4hashIS5_ENSG_18_Mod_range_hashingENSG_20_Default_ranged_hashENSG_20_Prime_rehash_policyENSG_17_Hashtable_traitsILb1ELb0ELb1EEEE13_M_rehash_auxEySt17integral_constantIbLb1EE
    EngineSq.dll._ZNSt10_HashtableINSt7__cxx1112basic_stringIcSt11char_traitsIcESaIcEEESt4pairIKS5_N13DynamicLoader20DynamicScriptManagerIN10GameEngine11GameContextEE11LibInstanceEESaISE_ENSt8__detail10_Select1stESt8equal_toIS5_ESt4hashIS5_ENSG_18_Mod_range_hashingENSG_20_Default_ranged_hashENSG_20_Prime_rehash_policyENSG_17_Hashtable_traitsILb1ELb0ELb1EEEE20_M_get_previous_nodeEyPNSG_15_Hash_node_baseE
    EngineSq.dll._ZNSt10_HashtableINSt7__cxx1112basic_stringIcSt11char_traitsIcESaIcEEESt4pairIKS5_N13DynamicLoader20DynamicScriptManagerIN10GameEngine11GameContextEE11LibInstanceEESaISE_ENSt8__detail10_Select1stESt8equal_toIS5_ESt4hashIS5_ENSG_18_Mod_range_hashingENSG_20_Default_ranged_hashENSG_20_Prime_rehash_policyENSG_17_Hashtable_traitsILb1ELb0ELb1EEEE21_M_insert_unique_nodeEyyPNSG_10_Hash_nodeISE_Lb1EEEy
    EngineSq.dll._ZNSt10_HashtableINSt7__cxx1112basic_stringIcSt11char_traitsIcESaIcEEESt4pairIKS5_N13DynamicLoader20DynamicScriptManagerIN10GameEngine11GameContextEE11LibInstanceEESaISE_ENSt8__detail10_Select1stESt8equal_toIS5_ESt4hashIS5_ENSG_18_Mod_range_hashingENSG_20_Default_ranged_hashENSG_20_Prime_rehash_policyENSG_17_Hashtable_traitsILb1ELb0ELb1EEEE22_M_insert_bucket_beginEyPNSG_10_Hash_nodeISE_Lb1EEE
    EngineSq.dll._ZNSt10_HashtableINSt7__cxx1112basic_stringIcSt11char_traitsIcESaIcEEESt4pairIKS5_N13DynamicLoader20DynamicScriptManagerIN10GameEngine11GameContextEE11LibInstanceEESaISE_ENSt8__detail10_Select1stESt8equal_toIS5_ESt4hashIS5_ENSG_18_Mod_range_hashingENSG_20_Default_ranged_hashENSG_20_Prime_rehash_policyENSG_17_Hashtable_traitsILb1ELb0ELb1EEEE22_M_remove_bucket_beginEyPNSG_10_Hash_nodeISE_Lb1EEEy
    EngineSq.dll._ZNSt10_HashtableINSt7__cxx1112basic_stringIcSt11char_traitsIcESaIcEEESt4pairIKS5_N13DynamicLoader20DynamicScriptManagerIN10GameEngine11GameContextEE11LibInstanceEESaISE_ENSt8__detail10_Select1stESt8equal_toIS5_ESt4hashIS5_ENSG_18_Mod_range_hashingENSG_20_Default_ranged_hashENSG_20_Prime_rehash_policyENSG_17_Hashtable_traitsILb1ELb0ELb1EEEE4findERS7_
    EngineSq.dll._ZNSt10_HashtableINSt7__cxx1112basic_stringIcSt11char_traitsIcESaIcEEESt4pairIKS5_N13DynamicLoader20DynamicScriptManagerIN10GameEngine11GameContextEE11LibInstanceEESaISE_ENSt8__detail10_Select1stESt8equal_toIS5_ESt4hashIS5_ENSG_18_Mod_range_hashingENSG_20_Default_ranged_hashENSG_20_Prime_rehash_policyENSG_17_Hashtable_traitsILb1ELb0ELb1EEEE5eraseENSG_20_Node_const_iteratorISE_Lb0ELb1EEE
    EngineSq.dll._ZNSt10_HashtableINSt7__cxx1112basic_stringIcSt11char_traitsIcESaIcEEESt4pairIKS5_N13DynamicLoader20DynamicScriptManagerIN10GameEngine11GameContextEE11LibInstanceEESaISE_ENSt8__detail10_Select1stESt8equal_toIS5_ESt4hashIS5_ENSG_18_Mod_range_hashingENSG_20_Default_ranged_hashENSG_20_Prime_rehash_policyENSG_17_Hashtable_traitsILb1ELb0ELb1EEEE8_M_eraseEyPNSG_15_Hash_node_baseEPNSG_10_Hash_nodeISE_Lb1EEE
    EngineSq.dll._ZNSt10_HashtableINSt7__cxx1112basic_stringIcSt11char_traitsIcESaIcEEESt4pairIKS5_N13DynamicLoader20DynamicScriptManagerIN10GameEngine11GameContextEE11LibInstanceEESaISE_ENSt8__detail10_Select1stESt8equal_toIS5_ESt4hashIS5_ENSG_18_Mod_range_hashingENSG_20_Default_ranged_hashENSG_20_Prime_rehash_policyENSG_17_Hashtable_traitsILb1ELb0ELb1EEEE9_M_rehashEyRKy
    EngineSq.dll._ZNSt10_HashtableINSt7__cxx1112basic_stringIcSt11char_traitsIcESaIcEEESt4pairIKS5_PN3LOG17SpecializedLoggerEESaISB_ENSt8__detail10_Select1stESt8equal_toIS5_ESt4hashIS5_ENSD_18_Mod_range_hashingENSD_20_Default_ranged_hashENSD_20_Prime_rehash_policyENSD_17_Hashtable_traitsILb1ELb0ELb1EEEE13_M_rehash_auxEySt17integral_constantIbLb1EE
    EngineSq.dll._ZNSt10_HashtableINSt7__cxx1112basic_stringIcSt11char_traitsIcESaIcEEESt4pairIKS5_PN3LOG17SpecializedLoggerEESaISB_ENSt8__detail10_Select1stESt8equal_toIS5_ESt4hashIS5_ENSD_18_Mod_range_hashingENSD_20_Default_ranged_hashENSD_20_Prime_rehash_policyENSD_17_Hashtable_traitsILb1ELb0ELb1EEEE21_M_insert_unique_nodeEyyPNSD_10_Hash_nodeISB_Lb1EEEy
    EngineSq.dll._ZNSt10_HashtableINSt7__cxx1112basic_stringIcSt11char_traitsIcESaIcEEESt4pairIKS5_PN3LOG17SpecializedLoggerEESaISB_ENSt8__detail10_Select1stESt8equal_toIS5_ESt4hashIS5_ENSD_18_Mod_range_hashingENSD_20_Default_ranged_hashENSD_20_Prime_rehash_policyENSD_17_Hashtable_traitsILb1ELb0ELb1EEEE22_M_insert_bucket_beginEyPNSD_10_Hash_nodeISB_Lb1EEE
    EngineSq.dll._ZNSt10_HashtableINSt7__cxx1112basic_stringIcSt11char_traitsIcESaIcEEESt4pairIKS5_PN3LOG17SpecializedLoggerEESaISB_ENSt8__detail10_Select1stESt8equal_toIS5_ESt4hashIS5_ENSD_18_Mod_range_hashingENSD_20_Default_ranged_hashENSD_20_Prime_rehash_policyENSD_17_Hashtable_traitsILb1ELb0ELb1EEEE5clearEv
    EngineSq.dll._ZNSt10_HashtableINSt7__cxx1112basic_stringIcSt11char_traitsIcESaIcEEESt4pairIKS5_PN3LOG17SpecializedLoggerEESaISB_ENSt8__detail10_Select1stESt8equal_toIS5_ESt4hashIS5_ENSD_18_Mod_range_hashingENSD_20_Default_ranged_hashENSD_20_Prime_rehash_policyENSD_17_Hashtable_traitsILb1ELb0ELb1EEEE9_M_rehashEyRKy
    EngineSq.dll._ZNSt10_HashtableINSt7__cxx1112basic_stringIcSt11char_traitsIcESaIcEEESt4pairIKS5_PN3LOG17SpecializedLoggerEESaISB_ENSt8__detail10_Select1stESt8equal_toIS5_ESt4hashIS5_ENSD_18_Mod_range_hashingENSD_20_Default_ranged_hashENSD_20_Prime_rehash_policyENSD_17_Hashtable_traitsILb1ELb0ELb1EEEED1Ev
    EngineSq.dll._ZNSt10_HashtableINSt7__cxx1112basic_stringIcSt11char_traitsIcESaIcEEESt4pairIKS5_St10shared_ptrIN13DynamicLoader22DynamicScriptInterfaceEEESaISC_ENSt8__detail10_Select1stESt8equal_toIS5_ESt4hashIS5_ENSE_18_Mod_range_hashingENSE_20_Default_ranged_hashENSE_20_Prime_rehash_policyENSE_17_Hashtable_traitsILb1ELb0ELb1EEEE10_M_emplaceIJSC_EEES6_INSE_14_Node_iteratorISC_Lb0ELb1EEEbESt17integral_constantIbLb1EEDpOT_
    EngineSq.dll._ZNSt10_HashtableINSt7__cxx1112basic_stringIcSt11char_traitsIcESaIcEEESt4pairIKS5_St10shared_ptrIN13DynamicLoader22DynamicScriptInterfaceEEESaISC_ENSt8__detail10_Select1stESt8equal_toIS5_ESt4hashIS5_ENSE_18_Mod_range_hashingENSE_20_Default_ranged_hashENSE_20_Prime_rehash_policyENSE_17_Hashtable_traitsILb1ELb0ELb1EEEE13_M_rehash_auxEySt17integral_constantIbLb1EE
    EngineSq.dll._ZNSt10_HashtableINSt7__cxx1112basic_stringIcSt11char_traitsIcESaIcEEESt4pairIKS5_St10shared_ptrIN13DynamicLoader22DynamicScriptInterfaceEEESaISC_ENSt8__detail10_Select1stESt8equal_toIS5_ESt4hashIS5_ENSE_18_Mod_range_hashingENSE_20_Default_ranged_hashENSE_20_Prime_rehash_policyENSE_17_Hashtable_traitsILb1ELb0ELb1EEEE21_M_insert_unique_nodeEyyPNSE_10_Hash_nodeISC_Lb1EEEy
    EngineSq.dll._ZNSt10_HashtableINSt7__cxx1112basic_stringIcSt11char_traitsIcESaIcEEESt4pairIKS5_St10shared_ptrIN13DynamicLoader22DynamicScriptInterfaceEEESaISC_ENSt8__detail10_Select1stESt8equal_toIS5_ESt4hashIS5_ENSE_18_Mod_range_hashingENSE_20_Default_ranged_hashENSE_20_Prime_rehash_policyENSE_17_Hashtable_traitsILb1ELb0ELb1EEEE22_M_insert_bucket_beginEyPNSE_10_Hash_nodeISC_Lb1EEE
    EngineSq.dll._ZNSt10_HashtableINSt7__cxx1112basic_stringIcSt11char_traitsIcESaIcEEESt4pairIKS5_St10shared_ptrIN13DynamicLoader22DynamicScriptInterfaceEEESaISC_ENSt8__detail10_Select1stESt8equal_toIS5_ESt4hashIS5_ENSE_18_Mod_range_hashingENSE_20_Default_ranged_hashENSE_20_Prime_rehash_policyENSE_17_Hashtable_traitsILb1ELb0ELb1EEEE4findERS7_
    EngineSq.dll._ZNSt10_HashtableINSt7__cxx1112basic_stringIcSt11char_traitsIcESaIcEEESt4pairIKS5_St10shared_ptrIN13DynamicLoader22DynamicScriptInterfaceEEESaISC_ENSt8__detail10_Select1stESt8equal_toIS5_ESt4hashIS5_ENSE_18_Mod_range_hashingENSE_20_Default_ranged_hashENSE_20_Prime_rehash_policyENSE_17_Hashtable_traitsILb1ELb0ELb1EEEE5clearEv
    EngineSq.dll._ZNSt10_HashtableINSt7__cxx1112basic_stringIcSt11char_traitsIcESaIcEEESt4pairIKS5_St10shared_ptrIN13DynamicLoader22DynamicScriptInterfaceEEESaISC_ENSt8__detail10_Select1stESt8equal_toIS5_ESt4hashIS5_ENSE_18_Mod_range_hashingENSE_20_Default_ranged_hashENSE_20_Prime_rehash_policyENSE_17_Hashtable_traitsILb1ELb0ELb1EEEE8_M_resetEv
    EngineSq.dll._ZNSt10_HashtableINSt7__cxx1112basic_stringIcSt11char_traitsIcESaIcEEESt4pairIKS5_St10shared_ptrIN13DynamicLoader22DynamicScriptInterfaceEEESaISC_ENSt8__detail10_Select1stESt8equal_toIS5_ESt4hashIS5_ENSE_18_Mod_range_hashingENSE_20_Default_ranged_hashENSE_20_Prime_rehash_policyENSE_17_Hashtable_traitsILb1ELb0ELb1EEEE9_M_rehashEyRKy
    EngineSq.dll._ZNSt10_HashtableINSt7__cxx1112basic_stringIcSt11char_traitsIcESaIcEEESt4pairIKS5_St10shared_ptrIN13DynamicLoader22DynamicScriptInterfaceEEESaISC_ENSt8__detail10_Select1stESt8equal_toIS5_ESt4hashIS5_ENSE_18_Mod_range_hashingENSE_20_Default_ranged_hashENSE_20_Prime_rehash_policyENSE_17_Hashtable_traitsILb1ELb0ELb1EEEEC1EOSP_
    EngineSq.dll._ZNSt10_HashtableINSt7__cxx1112basic_stringIcSt11char_traitsIcESaIcEEESt4pairIKS5_St10shared_ptrIN13DynamicLoader22DynamicScriptInterfaceEEESaISC_ENSt8__detail10_Select1stESt8equal_toIS5_ESt4hashIS5_ENSE_18_Mod_range_hashingENSE_20_Default_ranged_hashENSE_20_Prime_rehash_policyENSE_17_Hashtable_traitsILb1ELb0ELb1EEEED1Ev
    EngineSq.dll._ZNSt10_HashtableIySt4pairIKyN3ECS6SystemEESaIS4_ENSt8__detail10_Select1stESt8equal_toIyESt4hashIyENS6_18_Mod_range_hashingENS6_20_Default_ranged_hashENS6_20_Prime_rehash_policyENS6_17_Hashtable_traitsILb0ELb0ELb1EEEE10_M_emplaceIJS4_EEES0_INS6_14_Node_iteratorIS4_Lb0ELb0EEEbESt17integral_constantIbLb1EEDpOT_
    EngineSq.dll._ZNSt10_HashtableIySt4pairIKyN3ECS6SystemEESaIS4_ENSt8__detail10_Select1stESt8equal_toIyESt4hashIyENS6_18_Mod_range_hashingENS6_20_Default_ranged_hashENS6_20_Prime_rehash_policyENS6_17_Hashtable_traitsILb0ELb0ELb1EEEE13_M_rehash_auxEySt17integral_constantIbLb1EE
    EngineSq.dll._ZNSt10_HashtableIySt4pairIKyN3ECS6SystemEESaIS4_ENSt8__detail10_Select1stESt8equal_toIyESt4hashIyENS6_18_Mod_range_hashingENS6_20_Default_ranged_hashENS6_20_Prime_rehash_policyENS6_17_Hashtable_traitsILb0ELb0ELb1EEEE21_M_insert_unique_nodeEyyPNS6_10_Hash_nodeIS4_Lb0EEEy
    EngineSq.dll._ZNSt10_HashtableIySt4pairIKyN3ECS6SystemEESaIS4_ENSt8__detail10_Select1stESt8equal_toIyESt4hashIyENS6_18_Mod_range_hashingENS6_20_Default_ranged_hashENS6_20_Prime_rehash_policyENS6_17_Hashtable_traitsILb0ELb0ELb1EEEE22_M_insert_bucket_beginEyPNS6_10_Hash_nodeIS4_Lb0EEE
    EngineSq.dll._ZNSt10_HashtableIySt4pairIKyN3ECS6SystemEESaIS4_ENSt8__detail10_Select1stESt8equal_toIyESt4hashIyENS6_18_Mod_range_hashingENS6_20_Default_ranged_hashENS6_20_Prime_rehash_policyENS6_17_Hashtable_traitsILb0ELb0ELb1EEEE22_M_remove_bucket_beginEyPNS6_10_Hash_nodeIS4_Lb0EEEy
    EngineSq.dll._ZNSt10_HashtableIySt4pairIKyN3ECS6SystemEESaIS4_ENSt8__detail10_Select1stESt8equal_toIyESt4hashIyENS6_18_Mod_range_hashingENS6_20_Default_ranged_hashENS6_20_Prime_rehash_policyENS6_17_Hashtable_traitsILb0ELb0ELb1EEEE8_M_eraseESt17integral_constantIbLb1EERS1_
    EngineSq.dll._ZNSt10_HashtableIySt4pairIKyN3ECS6SystemEESaIS4_ENSt8__detail10_Select1stESt8equal_toIyESt4hashIyENS6_18_Mod_range_hashingENS6_20_Default_ranged_hashENS6_20_Prime_rehash_policyENS6_17_Hashtable_traitsILb0ELb0ELb1EEEE8_M_eraseEyPNS6_15_Hash_node_baseEPNS6_10_Hash_nodeIS4_Lb0EEE
    EngineSq.dll._ZNSt10_HashtableIySt4pairIKyN3ECS6SystemEESaIS4_ENSt8__detail10_Select1stESt8equal_toIyESt4hashIyENS6_18_Mod_range_hashingENS6_20_Default_ranged_hashENS6_20_Prime_rehash_policyENS6_17_Hashtable_traitsILb0ELb0ELb1EEEE9_M_rehashEyRS1_
    EngineSq.dll._ZNSt10_HashtableIySt4pairIKySt10unique_ptrIN3ECS20ComponentManagerBaseESt14default_deleteIS4_EEESaIS8_ENSt8__detail10_Select1stESt8equal_toIyESt4hashIyENSA_18_Mod_range_hashingENSA_20_Default_ranged_hashENSA_20_Prime_rehash_policyENSA_17_Hashtable_traitsILb0ELb0ELb1EEEE13_M_rehash_auxEySt17integral_constantIbLb1EE
    EngineSq.dll._ZNSt10_HashtableIySt4pairIKySt10unique_ptrIN3ECS20ComponentManagerBaseESt14default_deleteIS4_EEESaIS8_ENSt8__detail10_Select1stESt8equal_toIyESt4hashIyENSA_18_Mod_range_hashingENSA_20_Default_ranged_hashENSA_20_Prime_rehash_policyENSA_17_Hashtable_traitsILb0ELb0ELb1EEEE21_M_insert_unique_nodeEyyPNSA_10_Hash_nodeIS8_Lb0EEEy
    EngineSq.dll._ZNSt10_HashtableIySt4pairIKySt10unique_ptrIN3ECS20ComponentManagerBaseESt14default_deleteIS4_EEESaIS8_ENSt8__detail10_Select1stESt8equal_toIyESt4hashIyENSA_18_Mod_range_hashingENSA_20_Default_ranged_hashENSA_20_Prime_rehash_policyENSA_17_Hashtable_traitsILb0ELb0ELb1EEEE22_M_insert_bucket_beginEyPNSA_10_Hash_nodeIS8_Lb0EEE
    EngineSq.dll._ZNSt10_HashtableIySt4pairIKySt10unique_ptrIN3ECS20ComponentManagerBaseESt14default_deleteIS4_EEESaIS8_ENSt8__detail10_Select1stESt8equal_toIyESt4hashIyENSA_18_Mod_range_hashingENSA_20_Default_ranged_hashENSA_20_Prime_rehash_policyENSA_17_Hashtable_traitsILb0ELb0ELb1EEEE9_M_rehashEyRS1_
    EngineSq.dll._ZNSt11_Deque_baseIN3LOG8LogQueryESaIS1_EE15_M_create_nodesEPPS1_S5_
    EngineSq.dll._ZNSt11_Deque_baseIN3LOG8LogQueryESaIS1_EE16_M_destroy_nodesEPPS1_S5_
    EngineSq.dll._ZNSt11_Deque_baseIN3LOG8LogQueryESaIS1_EE17_M_initialize_mapEy
    EngineSq.dll._ZNSt11unique_lockISt5mutexE6unlockEv
    EngineSq.dll._ZNSt13_Bvector_baseISaIbEE13_M_deallocateEv
    EngineSq.dll._ZNSt15_Sp_counted_ptrIPN13DynamicLoader22DynamicScriptInterfaceELN9__gnu_cxx12_Lock_policyE2EE10_M_destroyEv
    EngineSq.dll._ZNSt15_Sp_counted_ptrIPN13DynamicLoader22DynamicScriptInterfaceELN9__gnu_cxx12_Lock_policyE2EE10_M_disposeEv
    EngineSq.dll._ZNSt15_Sp_counted_ptrIPN13DynamicLoader22DynamicScriptInterfaceELN9__gnu_cxx12_Lock_policyE2EE14_M_get_deleterERKSt9type_info
    EngineSq.dll._ZNSt15_Sp_counted_ptrIPN13DynamicLoader22DynamicScriptInterfaceELN9__gnu_cxx12_Lock_policyE2EED0Ev
    EngineSq.dll._ZNSt15_Sp_counted_ptrIPN13DynamicLoader22DynamicScriptInterfaceELN9__gnu_cxx12_Lock_policyE2EED1Ev
    EngineSq.dll._ZNSt16_Sp_counted_baseILN9__gnu_cxx12_Lock_policyE2EE10_M_releaseEv
    EngineSq.dll._ZNSt4pairIKNSt7__cxx1112basic_stringIcSt11char_traitsIcESaIcEEESt10shared_ptrIN13DynamicLoader22DynamicScriptInterfaceEEED1Ev
    EngineSq.dll._ZNSt5dequeIN3LOG8LogQueryESaIS1_EE16_M_pop_front_auxEv
    EngineSq.dll._ZNSt5dequeIN3LOG8LogQueryESaIS1_EE16_M_push_back_auxIJRKS1_EEEvDpOT_
    EngineSq.dll._ZNSt5dequeIN3LOG8LogQueryESaIS1_EE17_M_reallocate_mapEyb
    EngineSq.dll._ZNSt5dequeIySaIyEE16_M_pop_front_auxEv
    EngineSq.dll._ZNSt5dequeIySaIyEE16_M_push_back_auxIJRKyEEEvDpOT_
    EngineSq.dll._ZNSt5dequeIySaIyEE17_M_reallocate_mapEyb
    EngineSq.dll._ZNSt6thread11_State_implINS_8_InvokerISt5tupleIJMN3LOG6LoggerEFvvEPS4_EEEEE6_M_runEv
    EngineSq.dll._ZNSt6thread11_State_implINS_8_InvokerISt5tupleIJMN3LOG6LoggerEFvvEPS4_EEEEED0Ev
    EngineSq.dll._ZNSt6thread11_State_implINS_8_InvokerISt5tupleIJMN3LOG6LoggerEFvvEPS4_EEEEED1Ev
    EngineSq.dll._ZNSt6vectorIN3ECS6EntityESaIS1_EE17_M_realloc_insertIJRKS1_EEEvN9__gnu_cxx17__normal_iteratorIPS1_S3_EEDpOT_
    EngineSq.dll._ZNSt6vectorIN8ECSScene6EntityESaIS1_EE17_M_realloc_insertIJRKS1_EEEvN9__gnu_cxx17__normal_iteratorIPS1_S3_EEDpOT_
    EngineSq.dll._ZNSt6vectorIN8ECSScene9ComponentESaIS1_EE17_M_realloc_insertIJRKS1_EEEvN9__gnu_cxx17__normal_iteratorIPS1_S3_EEDpOT_
    EngineSq.dll._ZNSt6vectorIN8ECSScene9ComponentESaIS1_EED1Ev
    EngineSq.dll._ZNSt6vectorIN8nlohmann16json_abi_v3_11_310basic_jsonISt3mapS_NSt7__cxx1112basic_stringIcSt11char_traitsIcESaIcEEEbxydSaNS1_14adl_serializerES_IhSaIhEEvEESaISD_EE12emplace_backIJDnEEERSD_DpOT_
    EngineSq.dll._ZNSt6vectorIN8nlohmann16json_abi_v3_11_310basic_jsonISt3mapS_NSt7__cxx1112basic_stringIcSt11char_traitsIcESaIcEEEbxydSaNS1_14adl_serializerES_IhSaIhEEvEESaISD_EE12emplace_backIJNS1_6detail7value_tEEEERSD_DpOT_
    EngineSq.dll._ZNSt6vectorIN8nlohmann16json_abi_v3_11_310basic_jsonISt3mapS_NSt7__cxx1112basic_stringIcSt11char_traitsIcESaIcEEEbxydSaNS1_14adl_serializerES_IhSaIhEEvEESaISD_EE12emplace_backIJRS9_EEERSD_DpOT_
    EngineSq.dll._ZNSt6vectorIN8nlohmann16json_abi_v3_11_310basic_jsonISt3mapS_NSt7__cxx1112basic_stringIcSt11char_traitsIcESaIcEEEbxydSaNS1_14adl_serializerES_IhSaIhEEvEESaISD_EE12emplace_backIJRbEEERSD_DpOT_
    EngineSq.dll._ZNSt6vectorIN8nlohmann16json_abi_v3_11_310basic_jsonISt3mapS_NSt7__cxx1112basic_stringIcSt11char_traitsIcESaIcEEEbxydSaNS1_14adl_serializerES_IhSaIhEEvEESaISD_EE12emplace_backIJRdEEERSD_DpOT_
    EngineSq.dll._ZNSt6vectorIN8nlohmann16json_abi_v3_11_310basic_jsonISt3mapS_NSt7__cxx1112basic_stringIcSt11char_traitsIcESaIcEEEbxydSaNS1_14adl_serializerES_IhSaIhEEvEESaISD_EE12emplace_backIJRxEEERSD_DpOT_
    EngineSq.dll._ZNSt6vectorIN8nlohmann16json_abi_v3_11_310basic_jsonISt3mapS_NSt7__cxx1112basic_stringIcSt11char_traitsIcESaIcEEEbxydSaNS1_14adl_serializerES_IhSaIhEEvEESaISD_EE12emplace_backIJRyEEERSD_DpOT_
    EngineSq.dll._ZNSt6vectorIN8nlohmann16json_abi_v3_11_310basic_jsonISt3mapS_NSt7__cxx1112basic_stringIcSt11char_traitsIcESaIcEEEbxydSaNS1_14adl_serializerES_IhSaIhEEvEESaISD_EE12emplace_backIJSD_EEERSD_DpOT_
    EngineSq.dll._ZNSt6vectorIN8nlohmann16json_abi_v3_11_310basic_jsonISt3mapS_NSt7__cxx1112basic_stringIcSt11char_traitsIcESaIcEEEbxydSaNS1_14adl_serializerES_IhSaIhEEvEESaISD_EE17_M_realloc_insertIJDnEEEvN9__gnu_cxx17__normal_iteratorIPSD_SF_EEDpOT_
    EngineSq.dll._ZNSt6vectorIN8nlohmann16json_abi_v3_11_310basic_jsonISt3mapS_NSt7__cxx1112basic_stringIcSt11char_traitsIcESaIcEEEbxydSaNS1_14adl_serializerES_IhSaIhEEvEESaISD_EE17_M_realloc_insertIJNS1_6detail7value_tEEEEvN9__gnu_cxx17__normal_iteratorIPSD_SF_EEDpOT_
    EngineSq.dll._ZNSt6vectorIN8nlohmann16json_abi_v3_11_310basic_jsonISt3mapS_NSt7__cxx1112basic_stringIcSt11char_traitsIcESaIcEEEbxydSaNS1_14adl_serializerES_IhSaIhEEvEESaISD_EE17_M_realloc_insertIJRS9_EEEvN9__gnu_cxx17__normal_iteratorIPSD_SF_EEDpOT_
    EngineSq.dll._ZNSt6vectorIN8nlohmann16json_abi_v3_11_310basic_jsonISt3mapS_NSt7__cxx1112basic_stringIcSt11char_traitsIcESaIcEEEbxydSaNS1_14adl_serializerES_IhSaIhEEvEESaISD_EE17_M_realloc_insertIJRbEEEvN9__gnu_cxx17__normal_iteratorIPSD_SF_EEDpOT_
    EngineSq.dll._ZNSt6vectorIN8nlohmann16json_abi_v3_11_310basic_jsonISt3mapS_NSt7__cxx1112basic_stringIcSt11char_traitsIcESaIcEEEbxydSaNS1_14adl_serializerES_IhSaIhEEvEESaISD_EE17_M_realloc_insertIJRdEEEvN9__gnu_cxx17__normal_iteratorIPSD_SF_EEDpOT_
    EngineSq.dll._ZNSt6vectorIN8nlohmann16json_abi_v3_11_310basic_jsonISt3mapS_NSt7__cxx1112basic_stringIcSt11char_traitsIcESaIcEEEbxydSaNS1_14adl_serializerES_IhSaIhEEvEESaISD_EE17_M_realloc_insertIJRxEEEvN9__gnu_cxx17__normal_iteratorIPSD_SF_EEDpOT_
    EngineSq.dll._ZNSt6vectorIN8nlohmann16json_abi_v3_11_310basic_jsonISt3mapS_NSt7__cxx1112basic_stringIcSt11char_traitsIcESaIcEEEbxydSaNS1_14adl_serializerES_IhSaIhEEvEESaISD_EE17_M_realloc_insertIJRyEEEvN9__gnu_cxx17__normal_iteratorIPSD_SF_EEDpOT_
    EngineSq.dll._ZNSt6vectorIN8nlohmann16json_abi_v3_11_310basic_jsonISt3mapS_NSt7__cxx1112basic_stringIcSt11char_traitsIcESaIcEEEbxydSaNS1_14adl_serializerES_IhSaIhEEvEESaISD_EE17_M_realloc_insertIJSD_EEEvN9__gnu_cxx17__normal_iteratorIPSD_SF_EEDpOT_
    EngineSq.dll._ZNSt6vectorIN8nlohmann16json_abi_v3_11_310basic_jsonISt3mapS_NSt7__cxx1112basic_stringIcSt11char_traitsIcESaIcEEEbxydSaNS1_14adl_serializerES_IhSaIhEEvEESaISD_EE7reserveEy
    EngineSq.dll._ZNSt6vectorIN8nlohmann16json_abi_v3_11_310basic_jsonISt3mapS_NSt7__cxx1112basic_stringIcSt11char_traitsIcESaIcEEEbxydSaNS1_14adl_serializerES_IhSaIhEEvEESaISD_EE8_M_eraseEN9__gnu_cxx17__normal_iteratorIPSD_SF_EE
    EngineSq.dll._ZNSt6vectorIN8nlohmann16json_abi_v3_11_310basic_jsonISt3mapS_NSt7__cxx1112basic_stringIcSt11char_traitsIcESaIcEEEbxydSaNS1_14adl_serializerES_IhSaIhEEvEESaISD_EED1Ev
    EngineSq.dll._ZNSt6vectorIPN8nlohmann16json_abi_v3_11_310basic_jsonISt3mapS_NSt7__cxx1112basic_stringIcSt11char_traitsIcESaIcEEEbxydSaNS1_14adl_serializerES_IhSaIhEEvEESaISE_EE12emplace_backIJSE_EEERSE_DpOT_
    EngineSq.dll._ZNSt6vectorIPN8nlohmann16json_abi_v3_11_310basic_jsonISt3mapS_NSt7__cxx1112basic_stringIcSt11char_traitsIcESaIcEEEbxydSaNS1_14adl_serializerES_IhSaIhEEvEESaISE_EE17_M_realloc_insertIJRKSE_EEEvN9__gnu_cxx17__normal_iteratorIPSE_SG_EEDpOT_
    EngineSq.dll._ZNSt6vectorIPN8nlohmann16json_abi_v3_11_310basic_jsonISt3mapS_NSt7__cxx1112basic_stringIcSt11char_traitsIcESaIcEEEbxydSaNS1_14adl_serializerES_IhSaIhEEvEESaISE_EE17_M_realloc_insertIJSE_EEEvN9__gnu_cxx17__normal_iteratorIPSE_SG_EEDpOT_
    EngineSq.dll._ZNSt6vectorISt10unique_ptrIN3ECS16ComponentManagerINS1_6EntityEE9OperationESt14default_deleteIS5_EESaIS8_EE12emplace_backIJS0_INS4_12AddOperationES6_ISC_EEEEERS8_DpOT_
    EngineSq.dll._ZNSt6vectorISt10unique_ptrIN3ECS16ComponentManagerINS1_6EntityEE9OperationESt14default_deleteIS5_EESaIS8_EE12emplace_backIJS0_INS4_15RemoveOperationES6_ISC_EEEEERS8_DpOT_
    EngineSq.dll._ZNSt6vectorISt10unique_ptrIN3ECS16ComponentManagerINS1_6EntityEE9OperationESt14default_deleteIS5_EESaIS8_EE17_M_realloc_insertIJS0_INS4_12AddOperationES6_ISC_EEEEEvN9__gnu_cxx17__normal_iteratorIPS8_SA_EEDpOT_
    EngineSq.dll._ZNSt6vectorISt10unique_ptrIN3ECS16ComponentManagerINS1_6EntityEE9OperationESt14default_deleteIS5_EESaIS8_EE17_M_realloc_insertIJS0_INS4_15RemoveOperationES6_ISC_EEEEEvN9__gnu_cxx17__normal_iteratorIPS8_SA_EEDpOT_
    EngineSq.dll._ZNSt6vectorISt4pairIN3ECS6EntityES2_ESaIS3_EE12emplace_backIJS3_EEERS3_DpOT_
    EngineSq.dll._ZNSt6vectorISt4pairIN3ECS6EntityES2_ESaIS3_EE16_M_shrink_to_fitEv
    EngineSq.dll._ZNSt6vectorISt4pairIN3ECS6EntityES2_ESaIS3_EE17_M_realloc_insertIJS3_EEEvN9__gnu_cxx17__normal_iteratorIPS3_S5_EEDpOT_
    EngineSq.dll._ZNSt6vectorIbSaIbEE13_M_insert_auxESt13_Bit_iteratorb
    EngineSq.dll._ZNSt6vectorIbSaIbEE4backEv
    EngineSq.dll._ZNSt6vectorIbSaIbEE9push_backEb
    EngineSq.dll._ZNSt6vectorIcSaIcEE12emplace_backIJcEEERcDpOT_
    EngineSq.dll._ZNSt6vectorIcSaIcEE17_M_realloc_insertIJcEEEvN9__gnu_cxx17__normal_iteratorIPcS1_EEDpOT_
    EngineSq.dll._ZNSt6vectorIySaIyEE17_M_realloc_insertIJRKyEEEvN9__gnu_cxx17__normal_iteratorIPyS1_EEDpOT_
    EngineSq.dll._ZNSt7__cxx1112basic_stringIcSt11char_traitsIcESaIcEE10_M_replaceEyyPKcy
    EngineSq.dll._ZNSt7__cxx1112basic_stringIcSt11char_traitsIcESaIcEE12_M_constructIPKcEEvT_S8_St20forward_iterator_tag
    EngineSq.dll._ZNSt7__cxx1112basic_stringIcSt11char_traitsIcESaIcEE12_M_constructIPcEEvT_S7_St20forward_iterator_tag
    EngineSq.dll._ZNSt7__cxx1112basic_stringIcSt11char_traitsIcESaIcEE6appendEPKc
    EngineSq.dll._ZNSt7__cxx1112basic_stringIcSt11char_traitsIcESaIcEE7reserveEy
    EngineSq.dll._ZNSt7__cxx1112basic_stringIcSt11char_traitsIcESaIcEE9_M_appendEPKcy
    EngineSq.dll._ZNSt7__cxx1112basic_stringIcSt11char_traitsIcESaIcEE9_M_assignERKS4_
    EngineSq.dll._ZNSt7__cxx1112basic_stringIcSt11char_traitsIcESaIcEE9_M_createERyy
    EngineSq.dll._ZNSt7__cxx1112basic_stringIcSt11char_traitsIcESaIcEE9_M_mutateEyyPKcy
    EngineSq.dll._ZNSt7__cxx1112basic_stringIcSt11char_traitsIcESaIcEE9push_backEc
    EngineSq.dll._ZNSt7__cxx1112basic_stringIcSt11char_traitsIcESaIcEEC1EPKcRKS3_
    EngineSq.dll._ZNSt8_Rb_treeIN3ECS6EntityESt4pairIKS1_St3setIySt4lessIyESaIyEEESt10_Select1stIS9_ES5_IS1_ESaIS9_EE11equal_rangeERS3_
    EngineSq.dll._ZNSt8_Rb_treeIN3ECS6EntityESt4pairIKS1_St3setIySt4lessIyESaIyEEESt10_Select1stIS9_ES5_IS1_ESaIS9_EE12_M_erase_auxESt23_Rb_tree_const_iteratorIS9_E
    EngineSq.dll._ZNSt8_Rb_treeIN3ECS6EntityESt4pairIKS1_St3setIySt4lessIyESaIyEEESt10_Select1stIS9_ES5_IS1_ESaIS9_EE12_M_erase_auxESt23_Rb_tree_const_iteratorIS9_ESG_
    EngineSq.dll._ZNSt8_Rb_treeIN3ECS6EntityESt4pairIKS1_St3setIySt4lessIyESaIyEEESt10_Select1stIS9_ES5_IS1_ESaIS9_EE14_M_insert_nodeEPSt18_Rb_tree_node_baseSG_PSt13_Rb_tree_nodeIS9_E
    EngineSq.dll._ZNSt8_Rb_treeIN3ECS6EntityESt4pairIKS1_St3setIySt4lessIyESaIyEEESt10_Select1stIS9_ES5_IS1_ESaIS9_EE14_M_lower_boundEPSt13_Rb_tree_nodeIS9_EPSt18_Rb_tree_node_baseRS3_
    EngineSq.dll._ZNSt8_Rb_treeIN3ECS6EntityESt4pairIKS1_St3setIySt4lessIyESaIyEEESt10_Select1stIS9_ES5_IS1_ESaIS9_EE14_M_upper_boundEPSt13_Rb_tree_nodeIS9_EPSt18_Rb_tree_node_baseRS3_
    EngineSq.dll._ZNSt8_Rb_treeIN3ECS6EntityESt4pairIKS1_St3setIySt4lessIyESaIyEEESt10_Select1stIS9_ES5_IS1_ESaIS9_EE22_M_emplace_hint_uniqueIJRKSt21piecewise_construct_tSt5tupleIJRS3_EESJ_IJEEEEESt17_Rb_tree_iteratorIS9_ESt23_Rb_tree_const_iteratorIS9_EDpOT_
    EngineSq.dll._ZNSt8_Rb_treeIN3ECS6EntityESt4pairIKS1_St3setIySt4lessIyESaIyEEESt10_Select1stIS9_ES5_IS1_ESaIS9_EE24_M_get_insert_unique_posERS3_
    EngineSq.dll._ZNSt8_Rb_treeIN3ECS6EntityESt4pairIKS1_St3setIySt4lessIyESaIyEEESt10_Select1stIS9_ES5_IS1_ESaIS9_EE29_M_get_insert_hint_unique_posESt23_Rb_tree_const_iteratorIS9_ERS3_
    EngineSq.dll._ZNSt8_Rb_treeIN3ECS6EntityESt4pairIKS1_St3setIySt4lessIyESaIyEEESt10_Select1stIS9_ES5_IS1_ESaIS9_EE5eraseERS3_
    EngineSq.dll._ZNSt8_Rb_treeIN3ECS6EntityESt4pairIKS1_St3setIySt4lessIyESaIyEEESt10_Select1stIS9_ES5_IS1_ESaIS9_EE8_M_eraseEPSt13_Rb_tree_nodeIS9_E
    EngineSq.dll._ZNSt8_Rb_treeINSt7__cxx1112basic_stringIcSt11char_traitsIcESaIcEEESt4pairIKS5_N8nlohmann16json_abi_v3_11_310basic_jsonISt3mapSt6vectorS5_bxydSaNS9_14adl_serializerESC_IhSaIhEEvEEESt10_Select1stISH_ESt4lessIvESaISH_EE12_M_erase_auxESt23_Rb_tree_const_iteratorISH_E
    EngineSq.dll._ZNSt8_Rb_treeINSt7__cxx1112basic_stringIcSt11char_traitsIcESaIcEEESt4pairIKS5_N8nlohmann16json_abi_v3_11_310basic_jsonISt3mapSt6vectorS5_bxydSaNS9_14adl_serializerESC_IhSaIhEEvEEESt10_Select1stISH_ESt4lessIvESaISH_EE14_M_insert_nodeEPSt18_Rb_tree_node_baseSP_PSt13_Rb_tree_nodeISH_E
    EngineSq.dll._ZNSt8_Rb_treeINSt7__cxx1112basic_stringIcSt11char_traitsIcESaIcEEESt4pairIKS5_N8nlohmann16json_abi_v3_11_310basic_jsonISt3mapSt6vectorS5_bxydSaNS9_14adl_serializerESC_IhSaIhEEvEEESt10_Select1stISH_ESt4lessIvESaISH_EE14_M_lower_boundEPSt13_Rb_tree_nodeISH_EPSt18_Rb_tree_node_baseRS7_
    EngineSq.dll._ZNSt8_Rb_treeINSt7__cxx1112basic_stringIcSt11char_traitsIcESaIcEEESt4pairIKS5_N8nlohmann16json_abi_v3_11_310basic_jsonISt3mapSt6vectorS5_bxydSaNS9_14adl_serializerESC_IhSaIhEEvEEESt10_Select1stISH_ESt4lessIvESaISH_EE17_M_emplace_uniqueIJS5_DnEEES6_ISt17_Rb_tree_iteratorISH_EbEDpOT_
    EngineSq.dll._ZNSt8_Rb_treeINSt7__cxx1112basic_stringIcSt11char_traitsIcESaIcEEESt4pairIKS5_N8nlohmann16json_abi_v3_11_310basic_jsonISt3mapSt6vectorS5_bxydSaNS9_14adl_serializerESC_IhSaIhEEvEEESt10_Select1stISH_ESt4lessIvESaISH_EE22_M_emplace_hint_uniqueIJRKSt21piecewise_construct_tSt5tupleIJRS7_EESS_IJEEEEESt17_Rb_tree_iteratorISH_ESt23_Rb_tree_const_iteratorISH_EDpOT_
    EngineSq.dll._ZNSt8_Rb_treeINSt7__cxx1112basic_stringIcSt11char_traitsIcESaIcEEESt4pairIKS5_N8nlohmann16json_abi_v3_11_310basic_jsonISt3mapSt6vectorS5_bxydSaNS9_14adl_serializerESC_IhSaIhEEvEEESt10_Select1stISH_ESt4lessIvESaISH_EE24_M_get_insert_unique_posERS7_
    EngineSq.dll._ZNSt8_Rb_treeINSt7__cxx1112basic_stringIcSt11char_traitsIcESaIcEEESt4pairIKS5_N8nlohmann16json_abi_v3_11_310basic_jsonISt3mapSt6vectorS5_bxydSaNS9_14adl_serializerESC_IhSaIhEEvEEESt10_Select1stISH_ESt4lessIvESaISH_EE29_M_get_insert_hint_unique_posESt23_Rb_tree_const_iteratorISH_ERS7_
    EngineSq.dll._ZNSt8_Rb_treeINSt7__cxx1112basic_stringIcSt11char_traitsIcESaIcEEESt4pairIKS5_N8nlohmann16json_abi_v3_11_310basic_jsonISt3mapSt6vectorS5_bxydSaNS9_14adl_serializerESC_IhSaIhEEvEEESt10_Select1stISH_ESt4lessIvESaISH_EE7_M_copyINSN_11_Alloc_nodeEEEPSt13_Rb_tree_nodeISH_EPKSR_PSt18_Rb_tree_node_baseRT_
    EngineSq.dll._ZNSt8_Rb_treeINSt7__cxx1112basic_stringIcSt11char_traitsIcESaIcEEESt4pairIKS5_N8nlohmann16json_abi_v3_11_310basic_jsonISt3mapSt6vectorS5_bxydSaNS9_14adl_serializerESC_IhSaIhEEvEEESt10_Select1stISH_ESt4lessIvESaISH_EE8_M_eraseEPSt13_Rb_tree_nodeISH_E
    EngineSq.dll._ZNSt8_Rb_treeIyySt9_IdentityIyESt4lessIyESaIyEE10_M_insert_IRKyNS5_11_Alloc_nodeEEESt17_Rb_tree_iteratorIyEPSt18_Rb_tree_node_baseSD_OT_RT0_
    EngineSq.dll._ZNSt8_Rb_treeIyySt9_IdentityIyESt4lessIyESaIyEE10_M_insert_IyNS5_11_Alloc_nodeEEESt17_Rb_tree_iteratorIyEPSt18_Rb_tree_node_baseSB_OT_RT0_
    EngineSq.dll._ZNSt8_Rb_treeIyySt9_IdentityIyESt4lessIyESaIyEE16_M_insert_uniqueIRKyEESt4pairISt17_Rb_tree_iteratorIyEbEOT_
    EngineSq.dll._ZNSt8_Rb_treeIyySt9_IdentityIyESt4lessIyESaIyEE16_M_insert_uniqueIyEESt4pairISt17_Rb_tree_iteratorIyEbEOT_
    EngineSq.dll._ZNSt8_Rb_treeIyySt9_IdentityIyESt4lessIyESaIyEE24_M_get_insert_unique_posERKy
    EngineSq.dll._ZNSt8_Rb_treeIyySt9_IdentityIyESt4lessIyESaIyEE7_M_copyINS5_11_Alloc_nodeEEEPSt13_Rb_tree_nodeIyEPKS9_PSt18_Rb_tree_node_baseRT_
    EngineSq.dll._ZNSt8_Rb_treeIyySt9_IdentityIyESt4lessIyESaIyEE8_M_eraseEPSt13_Rb_tree_nodeIyE
    EngineSq.dll._ZNSt8__detail16_Hashtable_allocISaINS_10_Hash_nodeISt4pairIKNSt7__cxx1112basic_stringIcSt11char_traitsIcESaIcEEEN13DynamicLoader20DynamicScriptManagerIN10GameEngine11GameContextEE11LibInstanceEELb1EEEEE16_M_allocate_nodeIJSG_EEEPSH_DpOT_
    EngineSq.dll._ZNSt8__detail16_Hashtable_allocISaINS_10_Hash_nodeISt4pairIKNSt7__cxx1112basic_stringIcSt11char_traitsIcESaIcEEEN13DynamicLoader20DynamicScriptManagerIN10GameEngine11GameContextEE11LibInstanceEELb1EEEEE18_M_deallocate_nodeEPSH_
    EngineSq.dll._ZNSt8__detail16_Hashtable_allocISaINS_10_Hash_nodeISt4pairIKNSt7__cxx1112basic_stringIcSt11char_traitsIcESaIcEEEN13DynamicLoader20DynamicScriptManagerIN10GameEngine11GameContextEE11LibInstanceEELb1EEEEE19_M_allocate_bucketsEy
    EngineSq.dll._ZNSt8__detail16_Hashtable_allocISaINS_10_Hash_nodeISt4pairIKNSt7__cxx1112basic_stringIcSt11char_traitsIcESaIcEEEN13DynamicLoader20DynamicScriptManagerIN10GameEngine11GameContextEE11LibInstanceEELb1EEEEE21_M_deallocate_bucketsEPPNS_15_Hash_node_baseEy
    EngineSq.dll._ZNSt8__detail16_Hashtable_allocISaINS_10_Hash_nodeISt4pairIKNSt7__cxx1112basic_stringIcSt11char_traitsIcESaIcEEEPN3LOG17SpecializedLoggerEELb1EEEEE16_M_allocate_nodeIJRKSt21piecewise_construct_tSt5tupleIJRS9_EESL_IJEEEEEPSE_DpOT_
    EngineSq.dll._ZNSt8__detail16_Hashtable_allocISaINS_10_Hash_nodeISt4pairIKNSt7__cxx1112basic_stringIcSt11char_traitsIcESaIcEEEPN3LOG17SpecializedLoggerEELb1EEEEE18_M_deallocate_nodeEPSE_
    EngineSq.dll._ZNSt8__detail16_Hashtable_allocISaINS_10_Hash_nodeISt4pairIKNSt7__cxx1112basic_stringIcSt11char_traitsIcESaIcEEEPN3LOG17SpecializedLoggerEELb1EEEEE19_M_allocate_bucketsEy
    EngineSq.dll._ZNSt8__detail16_Hashtable_allocISaINS_10_Hash_nodeISt4pairIKNSt7__cxx1112basic_stringIcSt11char_traitsIcESaIcEEEPN3LOG17SpecializedLoggerEELb1EEEEE19_M_deallocate_nodesEPSE_
    EngineSq.dll._ZNSt8__detail16_Hashtable_allocISaINS_10_Hash_nodeISt4pairIKNSt7__cxx1112basic_stringIcSt11char_traitsIcESaIcEEEPN3LOG17SpecializedLoggerEELb1EEEEE21_M_deallocate_bucketsEPPNS_15_Hash_node_baseEy
    EngineSq.dll._ZNSt8__detail16_Hashtable_allocISaINS_10_Hash_nodeISt4pairIKNSt7__cxx1112basic_stringIcSt11char_traitsIcESaIcEEESt10shared_ptrIN13DynamicLoader22DynamicScriptInterfaceEEELb1EEEEE16_M_allocate_nodeIJSE_EEEPSF_DpOT_
    EngineSq.dll._ZNSt8__detail16_Hashtable_allocISaINS_10_Hash_nodeISt4pairIKNSt7__cxx1112basic_stringIcSt11char_traitsIcESaIcEEESt10shared_ptrIN13DynamicLoader22DynamicScriptInterfaceEEELb1EEEEE18_M_deallocate_nodeEPSF_
    EngineSq.dll._ZNSt8__detail16_Hashtable_allocISaINS_10_Hash_nodeISt4pairIKNSt7__cxx1112basic_stringIcSt11char_traitsIcESaIcEEESt10shared_ptrIN13DynamicLoader22DynamicScriptInterfaceEEELb1EEEEE19_M_allocate_bucketsEy
    EngineSq.dll._ZNSt8__detail16_Hashtable_allocISaINS_10_Hash_nodeISt4pairIKNSt7__cxx1112basic_stringIcSt11char_traitsIcESaIcEEESt10shared_ptrIN13DynamicLoader22DynamicScriptInterfaceEEELb1EEEEE19_M_deallocate_nodesEPSF_
    EngineSq.dll._ZNSt8__detail16_Hashtable_allocISaINS_10_Hash_nodeISt4pairIKNSt7__cxx1112basic_stringIcSt11char_traitsIcESaIcEEESt10shared_ptrIN13DynamicLoader22DynamicScriptInterfaceEEELb1EEEEE21_M_deallocate_bucketsEPPNS_15_Hash_node_baseEy
    EngineSq.dll._ZNSt8__detail16_Hashtable_allocISaINS_10_Hash_nodeISt4pairIKyN3ECS6SystemEELb0EEEEE16_M_allocate_nodeIJS6_EEEPS7_DpOT_
    EngineSq.dll._ZNSt8__detail16_Hashtable_allocISaINS_10_Hash_nodeISt4pairIKyN3ECS6SystemEELb0EEEEE18_M_deallocate_nodeEPS7_
    EngineSq.dll._ZNSt8__detail16_Hashtable_allocISaINS_10_Hash_nodeISt4pairIKyN3ECS6SystemEELb0EEEEE19_M_allocate_bucketsEy
    EngineSq.dll._ZNSt8__detail16_Hashtable_allocISaINS_10_Hash_nodeISt4pairIKyN3ECS6SystemEELb0EEEEE21_M_deallocate_bucketsEPPNS_15_Hash_node_baseEy
    EngineSq.dll._ZNSt8__detail16_Hashtable_allocISaINS_10_Hash_nodeISt4pairIKySt10unique_ptrIN3ECS20ComponentManagerBaseESt14default_deleteIS6_EEELb0EEEEE16_M_allocate_nodeIJRKSt21piecewise_construct_tSt5tupleIJOyEESI_IJEEEEEPSB_DpOT_
    EngineSq.dll._ZNSt8__detail16_Hashtable_allocISaINS_10_Hash_nodeISt4pairIKySt10unique_ptrIN3ECS20ComponentManagerBaseESt14default_deleteIS6_EEELb0EEEEE18_M_deallocate_nodeEPSB_
    EngineSq.dll._ZNSt8__detail16_Hashtable_allocISaINS_10_Hash_nodeISt4pairIKySt10unique_ptrIN3ECS20ComponentManagerBaseESt14default_deleteIS6_EEELb0EEEEE19_M_allocate_bucketsEy
    EngineSq.dll._ZNSt8__detail16_Hashtable_allocISaINS_10_Hash_nodeISt4pairIKySt10unique_ptrIN3ECS20ComponentManagerBaseESt14default_deleteIS6_EEELb0EEEEE21_M_deallocate_bucketsEPPNS_15_Hash_node_baseEy
    EngineSq.dll._ZNSt8__detail9_Map_baseINSt7__cxx1112basic_stringIcSt11char_traitsIcESaIcEEESt4pairIKS6_PN3LOG17SpecializedLoggerEESaISC_ENS_10_Select1stESt8equal_toIS6_ESt4hashIS6_ENS_18_Mod_range_hashingENS_20_Default_ranged_hashENS_20_Prime_rehash_policyENS_17_Hashtable_traitsILb1ELb0ELb1EEELb1EEixERS8_
    EngineSq.dll._ZNSt8__detail9_Map_baseIySt4pairIKySt10unique_ptrIN3ECS20ComponentManagerBaseESt14default_deleteIS5_EEESaIS9_ENS_10_Select1stESt8equal_toIyESt4hashIyENS_18_Mod_range_hashingENS_20_Default_ranged_hashENS_20_Prime_rehash_policyENS_17_Hashtable_traitsILb0ELb0ELb1EEELb1EEixEOy
    EngineSq.dll._ZNSt8functionIFbiN8nlohmann16json_abi_v3_11_36detail13parse_event_tERNS1_10basic_jsonISt3mapSt6vectorNSt7__cxx1112basic_stringIcSt11char_traitsIcESaIcEEEbxydSaNS1_14adl_serializerES6_IhSaIhEEvEEEEC1ERKSJ_
    EngineSq.dll._ZNSt8functionIFvvEEC1ERKS1_
    EngineSq.dll._ZSt11__make_heapIN9__gnu_cxx17__normal_iteratorIPSt4pairIN3ECS6EntityES4_ESt6vectorIS5_SaIS5_EEEENS0_5__ops15_Iter_comp_iterIZNS3_16ComponentManagerIS4_E8OptimizeEvEUlRKS5_SG_E_EEEvT_SJ_RT0_
    EngineSq.dll._ZSt11__push_heapIN9__gnu_cxx17__normal_iteratorIPSt4pairIN3ECS6EntityES4_ESt6vectorIS5_SaIS5_EEEExS5_NS0_5__ops14_Iter_comp_valIZNS3_16ComponentManagerIS4_E8OptimizeEvEUlRKS5_SG_E_EEEvT_T0_SK_T1_RT2_
    EngineSq.dll._ZSt11__sort_heapIN9__gnu_cxx17__normal_iteratorIPSt4pairIN3ECS6EntityES4_ESt6vectorIS5_SaIS5_EEEENS0_5__ops15_Iter_comp_iterIZNS3_16ComponentManagerIS4_E8OptimizeEvEUlRKS5_SG_E_EEEvT_SJ_RT0_
    EngineSq.dll._ZSt12__miter_baseIPPN8nlohmann16json_abi_v3_11_310basic_jsonISt3mapSt6vectorNSt7__cxx1112basic_stringIcSt11char_traitsIcESaIcEEEbxydSaNS1_14adl_serializerES4_IhSaIhEEvEEEDTcl12__miter_basecldtfp_4baseEEESt13move_iteratorIT_E
    EngineSq.dll._ZSt12__miter_baseIPcEDTcl12__miter_basecldtfp_4baseEEESt13move_iteratorIT_E
    EngineSq.dll._ZSt12__miter_baseIPyEDTcl12__miter_basecldtfp_4baseEEESt13move_iteratorIT_E
    EngineSq.dll._ZSt12__niter_baseIPKhSt6vectorIhSaIhEEET_N9__gnu_cxx17__normal_iteratorIS5_T0_EE
    EngineSq.dll._ZSt12__niter_baseIPN8nlohmann16json_abi_v3_11_310basic_jsonISt3mapSt6vectorNSt7__cxx1112basic_stringIcSt11char_traitsIcESaIcEEEbxydSaNS1_14adl_serializerES4_IhSaIhEEvEES4_ISE_SaISE_EEET_N9__gnu_cxx17__normal_iteratorISI_T0_EE
    EngineSq.dll._ZSt12__niter_baseIPSt4pairIN3ECS6EntityES2_ESt6vectorIS3_SaIS3_EEET_N9__gnu_cxx17__normal_iteratorIS8_T0_EE
    EngineSq.dll._ZSt13__adjust_heapIN9__gnu_cxx17__normal_iteratorIPSt4pairIN3ECS6EntityES4_ESt6vectorIS5_SaIS5_EEEExS5_NS0_5__ops15_Iter_comp_iterIZNS3_16ComponentManagerIS4_E8OptimizeEvEUlRKS5_SG_E_EEEvT_T0_SK_T1_T2_
    EngineSq.dll._ZSt13__heap_selectIN9__gnu_cxx17__normal_iteratorIPSt4pairIN3ECS6EntityES4_ESt6vectorIS5_SaIS5_EEEENS0_5__ops15_Iter_comp_iterIZNS3_16ComponentManagerIS4_E8OptimizeEvEUlRKS5_SG_E_EEEvT_SJ_SJ_T0_
    EngineSq.dll._ZSt13__lower_boundIN9__gnu_cxx17__normal_iteratorIPSt4pairIN3ECS6EntityES4_ESt6vectorIS5_SaIS5_EEEES4_NS0_5__ops14_Iter_comp_valIZNS3_16ComponentManagerIS4_E4findES4_jEUlRKS5_RKS4_E_EEET_SL_SL_RKT0_T1_
    EngineSq.dll._ZSt16__insertion_sortIN9__gnu_cxx17__normal_iteratorIPSt4pairIN3ECS6EntityES4_ESt6vectorIS5_SaIS5_EEEENS0_5__ops15_Iter_comp_iterIZNS3_16ComponentManagerIS4_E8OptimizeEvEUlRKS5_SG_E_EEEvT_SJ_T0_
    EngineSq.dll._ZSt16__introsort_loopIN9__gnu_cxx17__normal_iteratorIPSt4pairIN3ECS6EntityES4_ESt6vectorIS5_SaIS5_EEEExNS0_5__ops15_Iter_comp_iterIZNS3_16ComponentManagerIS4_E8OptimizeEvEUlRKS5_SG_E_EEEvT_SJ_T0_T1_
    EngineSq.dll._ZSt18__set_intersectionISt23_Rb_tree_const_iteratorIyES1_St20back_insert_iteratorISt6vectorIySaIyEEEN9__gnu_cxx5__ops15_Iter_less_iterEET1_T_SB_T0_SC_SA_T2_
    EngineSq.dll._ZSt19piecewise_construct
    EngineSq.dll._ZSt21__unguarded_partitionIN9__gnu_cxx17__normal_iteratorIPSt4pairIN3ECS6EntityES4_ESt6vectorIS5_SaIS5_EEEENS0_5__ops15_Iter_comp_iterIZNS3_16ComponentManagerIS4_E8OptimizeEvEUlRKS5_SG_E_EEET_SJ_SJ_SJ_T0_
    EngineSq.dll._ZSt22__final_insertion_sortIN9__gnu_cxx17__normal_iteratorIPSt4pairIN3ECS6EntityES4_ESt6vectorIS5_SaIS5_EEEENS0_5__ops15_Iter_comp_iterIZNS3_16ComponentManagerIS4_E8OptimizeEvEUlRKS5_SG_E_EEEvT_SJ_T0_
    EngineSq.dll._ZSt22__move_median_to_firstIN9__gnu_cxx17__normal_iteratorIPSt4pairIN3ECS6EntityES4_ESt6vectorIS5_SaIS5_EEEENS0_5__ops15_Iter_comp_iterIZNS3_16ComponentManagerIS4_E8OptimizeEvEUlRKS5_SG_E_EEEvT_SJ_SJ_SJ_T0_
    EngineSq.dll._ZSt25__unguarded_linear_insertIN9__gnu_cxx17__normal_iteratorIPSt4pairIN3ECS6EntityES4_ESt6vectorIS5_SaIS5_EEEENS0_5__ops14_Val_comp_iterIZNS3_16ComponentManagerIS4_E8OptimizeEvEUlRKS5_SG_E_EEEvT_T0_
    EngineSq.dll._ZSt34__uninitialized_move_if_noexcept_aIPN8nlohmann16json_abi_v3_11_310basic_jsonISt3mapSt6vectorNSt7__cxx1112basic_stringIcSt11char_traitsIcESaIcEEEbxydSaNS1_14adl_serializerES4_IhSaIhEEvEESF_SaISE_EET0_T_SI_SH_RT1_
    EngineSq.dll._ZStplIcSt11char_traitsIcESaIcEENSt7__cxx1112basic_stringIT_T0_T1_EEPKS5_RKS8_
    EngineSq.dll._ZTIN3ECS16ComponentManagerINS_6EntityEE12AddOperationE
    EngineSq.dll._ZTIN3ECS16ComponentManagerINS_6EntityEE15RemoveOperationE
    EngineSq.dll._ZTIN3ECS16ComponentManagerINS_6EntityEE9OperationE
    EngineSq.dll._ZTIN3ECS16ComponentManagerINS_6EntityEEE
    EngineSq.dll._ZTIN3ECS20ComponentManagerBaseE
    EngineSq.dll._ZTIN8nlohmann16json_abi_v3_11_36detail10type_errorE
    EngineSq.dll._ZTIN8nlohmann16json_abi_v3_11_36detail11other_errorE
    EngineSq.dll._ZTIN8nlohmann16json_abi_v3_11_36detail11parse_errorE
    EngineSq.dll._ZTIN8nlohmann16json_abi_v3_11_36detail12out_of_rangeE
    EngineSq.dll._ZTIN8nlohmann16json_abi_v3_11_36detail16invalid_iteratorE
    EngineSq.dll._ZTIN8nlohmann16json_abi_v3_11_36detail9exceptionE
    EngineSq.dll._ZTINSt6thread11_State_implINS_8_InvokerISt5tupleIJMN3LOG6LoggerEFvvEPS4_EEEEEE
    EngineSq.dll._ZTINSt6thread6_StateE
    EngineSq.dll._ZTISt11_Mutex_baseILN9__gnu_cxx12_Lock_policyE2EE
    EngineSq.dll._ZTISt15_Sp_counted_ptrIPN13DynamicLoader22DynamicScriptInterfaceELN9__gnu_cxx12_Lock_policyE2EE
    EngineSq.dll._ZTISt16_Sp_counted_baseILN9__gnu_cxx12_Lock_policyE2EE
    EngineSq.dll._ZTISt9exception
    EngineSq.dll._ZTSN3ECS16ComponentManagerINS_6EntityEE12AddOperationE
    EngineSq.dll._ZTSN3ECS16ComponentManagerINS_6EntityEE15RemoveOperationE
    EngineSq.dll._ZTSN3ECS16ComponentManagerINS_6EntityEE9OperationE
    EngineSq.dll._ZTSN3ECS16ComponentManagerINS_6EntityEEE
    EngineSq.dll._ZTSN3ECS20ComponentManagerBaseE
    EngineSq.dll._ZTSN3ECS9ComponentINS_6EntityEEE
    EngineSq.dll._ZTSN8nlohmann16json_abi_v3_11_36detail10type_errorE
    EngineSq.dll._ZTSN8nlohmann16json_abi_v3_11_36detail11other_errorE
    EngineSq.dll._ZTSN8nlohmann16json_abi_v3_11_36detail11parse_errorE
    EngineSq.dll._ZTSN8nlohmann16json_abi_v3_11_36detail12out_of_rangeE
    EngineSq.dll._ZTSN8nlohmann16json_abi_v3_11_36detail16invalid_iteratorE
    EngineSq.dll._ZTSN8nlohmann16json_abi_v3_11_36detail9exceptionE
    EngineSq.dll._ZTSNSt6thread11_State_implINS_8_InvokerISt5tupleIJMN3LOG6LoggerEFvvEPS4_EEEEEE
    EngineSq.dll._ZTSNSt6thread6_StateE
    EngineSq.dll._ZTSSt11_Mutex_baseILN9__gnu_cxx12_Lock_policyE2EE
    EngineSq.dll._ZTSSt15_Sp_counted_ptrIPN13DynamicLoader22DynamicScriptInterfaceELN9__gnu_cxx12_Lock_policyE2EE
    EngineSq.dll._ZTSSt16_Sp_counted_baseILN9__gnu_cxx12_Lock_policyE2EE
    EngineSq.dll._ZTSSt9exception
    EngineSq.dll._ZTVN3ECS16ComponentManagerINS_6EntityEE12AddOperationE
    EngineSq.dll._ZTVN3ECS16ComponentManagerINS_6EntityEE15RemoveOperationE
    EngineSq.dll._ZTVN3ECS16ComponentManagerINS_6EntityEEE
    EngineSq.dll._ZTVN8nlohmann16json_abi_v3_11_36detail10type_errorE
    EngineSq.dll._ZTVN8nlohmann16json_abi_v3_11_36detail11other_errorE
    EngineSq.dll._ZTVN8nlohmann16json_abi_v3_11_36detail11parse_errorE
    EngineSq.dll._ZTVN8nlohmann16json_abi_v3_11_36detail12out_of_rangeE
    EngineSq.dll._ZTVN8nlohmann16json_abi_v3_11_36detail16invalid_iteratorE
    EngineSq.dll._ZTVN8nlohmann16json_abi_v3_11_36detail9exceptionE
    EngineSq.dll._ZTVNSt6thread11_State_implINS_8_InvokerISt5tupleIJMN3LOG6LoggerEFvvEPS4_EEEEEE
    EngineSq.dll._ZTVSt15_Sp_counted_ptrIPN13DynamicLoader22DynamicScriptInterfaceELN9__gnu_cxx12_Lock_policyE2EE
